
vmlinux.ARM11A:     file format elf32-littlearm


Disassembly of section .text:

00000000 <start>:
       0:	e1a00000 	nop			; (mov r0, r0)
       4:	e1a00000 	nop			; (mov r0, r0)
       8:	e1a00000 	nop			; (mov r0, r0)
       c:	e1a00000 	nop			; (mov r0, r0)
      10:	e1a00000 	nop			; (mov r0, r0)
      14:	e1a00000 	nop			; (mov r0, r0)
      18:	e1a00000 	nop			; (mov r0, r0)
      1c:	e1a00000 	nop			; (mov r0, r0)
      20:	ea000002 	b	30 <_text+0x30>
      24:	016f2818 	.word	0x016f2818
      28:	00000000 	.word	0x00000000
      2c:	0028feb0 	.word	0x0028feb0
      30:	e10f9000 	mrs	r9, CPSR
      34:	eb000e21 	bl	38c0 <__hyp_stub_install>
      38:	e1a07001 	mov	r7, r1
      3c:	e1a08002 	mov	r8, r2
      40:	e10f2000 	mrs	r2, CPSR
      44:	e3120003 	tst	r2, #3
      48:	1a000001 	bne	54 <not_angel>
      4c:	e3a00017 	mov	r0, #23
      50:	ef123456 	svc	0x00123456

00000054 <not_angel>:
      54:	e10f0000 	mrs	r0, CPSR
      58:	e220001a 	eor	r0, r0, #26
      5c:	e310001f 	tst	r0, #31
      60:	e3c0001f 	bic	r0, r0, #31
      64:	e38000d3 	orr	r0, r0, #211	; 0xd3
      68:	1a000004 	bne	80 <not_angel+0x2c>
      6c:	e3800c01 	orr	r0, r0, #256	; 0x100
      70:	e28fe00c 	add	lr, pc, #12
      74:	e16ff000 	msr	SPSR_fsxc, r0
      78:	e12ef30e 	.word	0xe12ef30e
      7c:	e160006e 	.word	0xe160006e
      80:	e121f000 	msr	CPSR_c, r0
      84:	e16ff009 	msr	SPSR_fsxc, r9
	...
      a0:	e1a0400f 	mov	r4, pc
      a4:	e204433e 	and	r4, r4, #-134217728	; 0xf8000000
      a8:	e2844902 	add	r4, r4, #32768	; 0x8000
      ac:	e1a0000f 	mov	r0, pc
      b0:	e1500004 	cmp	r0, r4
      b4:	359f023c 	ldrcc	r0, [pc, #572]	; 2f8 <LC0+0x20>
      b8:	3080000f 	addcc	r0, r0, pc
      bc:	31540000 	cmpcc	r4, r0
      c0:	33844001 	orrcc	r4, r4, #1
      c4:	2b00008d 	blcs	300 <cache_on>

000000c8 <restart>:
      c8:	e28f0f82 	add	r0, pc, #520	; 0x208
      cc:	e8901c4e 	ldm	r0, {r1, r2, r3, r6, sl, fp, ip}
      d0:	e590d01c 	ldr	sp, [r0, #28]
      d4:	e0400001 	sub	r0, r0, r1
      d8:	e0866000 	add	r6, r6, r0
      dc:	e08aa000 	add	sl, sl, r0
      e0:	e5da9000 	ldrb	r9, [sl]
      e4:	e5dae001 	ldrb	lr, [sl, #1]
      e8:	e189940e 	orr	r9, r9, lr, lsl #8
      ec:	e5dae002 	ldrb	lr, [sl, #2]
      f0:	e5daa003 	ldrb	sl, [sl, #3]
      f4:	e189980e 	orr	r9, r9, lr, lsl #16
      f8:	e1899c0a 	orr	r9, r9, sl, lsl #24
      fc:	e08dd000 	add	sp, sp, r0
     100:	e28da801 	add	sl, sp, #65536	; 0x10000
     104:	e3a05000 	mov	r5, #0
     108:	e596e000 	ldr	lr, [r6]
     10c:	e59f1818 	ldr	r1, [pc, #2072]	; 92c <__armv3_mmu_cache_flush+0xc>
     110:	e15e0001 	cmp	lr, r1
     114:	1a00001e 	bne	194 <dtb_check_done>
     118:	e28dd801 	add	sp, sp, #65536	; 0x10000
     11c:	e92d500f 	push	{r0, r1, r2, r3, ip, lr}
     120:	e1a00008 	mov	r0, r8
     124:	e1a01006 	mov	r1, r6
     128:	e04d2006 	sub	r2, sp, r6
     12c:	eb001510 	bl	5574 <atags_to_fdt>
     130:	e3500001 	cmp	r0, #1
     134:	e2440902 	sub	r0, r4, #32768	; 0x8000
     138:	e3c00001 	bic	r0, r0, #1
     13c:	e2800c01 	add	r0, r0, #256	; 0x100
     140:	e1a01006 	mov	r1, r6
     144:	e04d2006 	sub	r2, sp, r6
     148:	0b001509 	bleq	5574 <atags_to_fdt>
     14c:	e8bd500f 	pop	{r0, r1, r2, r3, ip, lr}
     150:	e24dd801 	sub	sp, sp, #65536	; 0x10000
     154:	e1a08006 	mov	r8, r6
     158:	e59f57d0 	ldr	r5, [pc, #2000]	; 930 <__armv3_mmu_cache_flush+0x10>
     15c:	e28f10bc 	add	r1, pc, #188	; 0xbc
     160:	e0461001 	sub	r1, r6, r1
     164:	e0551001 	subs	r1, r5, r1
     168:	80899001 	addhi	r9, r9, r1
     16c:	e5965004 	ldr	r5, [r6, #4]
     170:	e0251865 	eor	r1, r5, r5, ror #16
     174:	e3c118ff 	bic	r1, r1, #16711680	; 0xff0000
     178:	e1a05465 	ror	r5, r5, #8
     17c:	e0255421 	eor	r5, r5, r1, lsr #8
     180:	e2855007 	add	r5, r5, #7
     184:	e3c55007 	bic	r5, r5, #7
     188:	e0866005 	add	r6, r6, r5
     18c:	e08aa005 	add	sl, sl, r5
     190:	e08dd005 	add	sp, sp, r5

00000194 <dtb_check_done>:
     194:	e28aa901 	add	sl, sl, #16384	; 0x4000
     198:	e154000a 	cmp	r4, sl
     19c:	2a00001f 	bcs	220 <wont_overwrite>
     1a0:	e084a009 	add	sl, r4, r9
     1a4:	e28f9074 	add	r9, pc, #116	; 0x74
     1a8:	e15a0009 	cmp	sl, r9
     1ac:	9a00001b 	bls	220 <wont_overwrite>
     1b0:	e28aac09 	add	sl, sl, #2304	; 0x900
     1b4:	e3caa0ff 	bic	sl, sl, #255	; 0xff
     1b8:	e24f50f8 	sub	r5, pc, #248	; 0xf8
     1bc:	e3c5501f 	bic	r5, r5, #31
     1c0:	e14f0000 	mrs	r0, SPSR
     1c4:	e200001f 	and	r0, r0, #31
     1c8:	e350001a 	cmp	r0, #26
     1cc:	1a000003 	bne	1e0 <dtb_check_done+0x4c>
     1d0:	eb000dcf 	bl	3914 <__hyp_get_vectors>
     1d4:	e0400005 	sub	r0, r0, r5
     1d8:	e080000a 	add	r0, r0, sl
     1dc:	eb000dcd 	bl	3918 <__hyp_set_vectors>
     1e0:	e0469005 	sub	r9, r6, r5
     1e4:	e289901f 	add	r9, r9, #31
     1e8:	e3c9901f 	bic	r9, r9, #31
     1ec:	e0896005 	add	r6, r9, r5
     1f0:	e089900a 	add	r9, r9, sl
     1f4:	e9365c0f 	ldmdb	r6!, {r0, r1, r2, r3, sl, fp, ip, lr}
     1f8:	e1560005 	cmp	r6, r5
     1fc:	e9295c0f 	stmdb	r9!, {r0, r1, r2, r3, sl, fp, ip, lr}
     200:	8afffffb 	bhi	1f4 <dtb_check_done+0x60>
     204:	e0496006 	sub	r6, r9, r6
     208:	e08dd006 	add	sp, sp, r6
     20c:	e3140001 	tst	r4, #1
     210:	0b00015a 	bleq	780 <cache_clean_flush>
     214:	e24f0f55 	sub	r0, pc, #340	; 0x154
     218:	e0800006 	add	r0, r0, r6
     21c:	e1a0f000 	mov	pc, r0

00000220 <wont_overwrite>:
     220:	e1901005 	orrs	r1, r0, r5
     224:	0a00000d 	beq	260 <not_relocated>
     228:	e08bb000 	add	fp, fp, r0
     22c:	e08cc000 	add	ip, ip, r0
     230:	e0822000 	add	r2, r2, r0
     234:	e0833000 	add	r3, r3, r0
     238:	e59b1000 	ldr	r1, [fp]
     23c:	e0811000 	add	r1, r1, r0
     240:	e1510002 	cmp	r1, r2
     244:	21530001 	cmpcs	r3, r1
     248:	80811005 	addhi	r1, r1, r5
     24c:	e48b1004 	str	r1, [fp], #4
     250:	e15b000c 	cmp	fp, ip
     254:	3afffff7 	bcc	238 <wont_overwrite+0x18>
     258:	e0822005 	add	r2, r2, r5
     25c:	e0833005 	add	r3, r3, r5

00000260 <not_relocated>:
     260:	e3a00000 	mov	r0, #0
     264:	e4820004 	str	r0, [r2], #4
     268:	e4820004 	str	r0, [r2], #4
     26c:	e4820004 	str	r0, [r2], #4
     270:	e4820004 	str	r0, [r2], #4
     274:	e1520003 	cmp	r2, r3
     278:	3afffff9 	bcc	264 <not_relocated+0x4>
     27c:	e3140001 	tst	r4, #1
     280:	e3c44001 	bic	r4, r4, #1
     284:	1b00001d 	blne	300 <cache_on>
     288:	e1a00004 	mov	r0, r4
     28c:	e1a0100d 	mov	r1, sp
     290:	e28d2801 	add	r2, sp, #65536	; 0x10000
     294:	e1a03007 	mov	r3, r7
     298:	eb0001cc 	bl	9d0 <decompress_kernel>
     29c:	eb000137 	bl	780 <cache_clean_flush>
     2a0:	eb00010e 	bl	6e0 <cache_off>
     2a4:	e1a01007 	mov	r1, r7
     2a8:	e1a02008 	mov	r2, r8
     2ac:	e14f0000 	mrs	r0, SPSR
     2b0:	e200001f 	and	r0, r0, #31
     2b4:	e350001a 	cmp	r0, #26
     2b8:	1a0001a8 	bne	960 <__enter_kernel>
     2bc:	e28fc010 	add	ip, pc, #16
     2c0:	e59c0000 	ldr	r0, [ip]
     2c4:	e080000c 	add	r0, r0, ip
     2c8:	eb000d92 	bl	3918 <__hyp_set_vectors>
     2cc:	e1400070 	.word	0xe1400070
     2d0:	eafffffe 	b	2d0 <not_relocated+0x70>
     2d4:	0000066c 	.word	0x0000066c

000002d8 <LC0>:
     2d8:	000002d8 0028feb0 0028fed4 0028feb0     ......(...(...(.
     2e8:	0028fe65 0028fe78 0028fea8 00290ed8     e.(.x.(...(...).
     2f8:	00393e0c e320f000                       .>9... .

00000300 <cache_on>:
     300:	e3a03008 	mov	r3, #8
     304:	ea000088 	b	52c <call_cache_fn>

00000308 <__armv4_mpu_cache_on>:
     308:	e3a0003f 	mov	r0, #63	; 0x3f
     30c:	ee060f17 	mcr	15, 0, r0, cr6, cr7, {0}
     310:	ee060f37 	mcr	15, 0, r0, cr6, cr7, {1}
     314:	e3a00080 	mov	r0, #128	; 0x80
     318:	ee020f10 	mcr	15, 0, r0, cr2, cr0, {0}
     31c:	ee020f30 	mcr	15, 0, r0, cr2, cr0, {1}
     320:	ee030f10 	mcr	15, 0, r0, cr3, cr0, {0}
     324:	e3a00903 	mov	r0, #49152	; 0xc000
     328:	ee050f30 	mcr	15, 0, r0, cr5, cr0, {1}
     32c:	ee050f10 	mcr	15, 0, r0, cr5, cr0, {0}
     330:	e3a00000 	mov	r0, #0
     334:	ee070f9a 	mcr	15, 0, r0, cr7, cr10, {4}
     338:	ee070f15 	mcr	15, 0, r0, cr7, cr5, {0}
     33c:	ee070f16 	mcr	15, 0, r0, cr7, cr6, {0}
     340:	ee110f10 	mrc	15, 0, r0, cr1, cr0, {0}
     344:	e380002d 	orr	r0, r0, #45	; 0x2d
     348:	e3800a01 	orr	r0, r0, #4096	; 0x1000
     34c:	ee010f10 	mcr	15, 0, r0, cr1, cr0, {0}
     350:	e3a00000 	mov	r0, #0
     354:	ee070f15 	mcr	15, 0, r0, cr7, cr5, {0}
     358:	ee070f16 	mcr	15, 0, r0, cr7, cr6, {0}
     35c:	e1a0f00e 	mov	pc, lr

00000360 <__armv3_mpu_cache_on>:
     360:	e3a0003f 	mov	r0, #63	; 0x3f
     364:	ee060f17 	mcr	15, 0, r0, cr6, cr7, {0}
     368:	e3a00080 	mov	r0, #128	; 0x80
     36c:	ee020f10 	mcr	15, 0, r0, cr2, cr0, {0}
     370:	ee030f10 	mcr	15, 0, r0, cr3, cr0, {0}
     374:	e3a00903 	mov	r0, #49152	; 0xc000
     378:	ee050f10 	mcr	15, 0, r0, cr5, cr0, {0}
     37c:	e3a00000 	mov	r0, #0
     380:	ee070f10 	mcr	15, 0, r0, cr7, cr0, {0}
     384:	ee110f10 	mrc	15, 0, r0, cr1, cr0, {0}
     388:	e380000d 	orr	r0, r0, #13
     38c:	e3a00000 	mov	r0, #0
     390:	ee010f10 	mcr	15, 0, r0, cr1, cr0, {0}
     394:	ee070f10 	mcr	15, 0, r0, cr7, cr0, {0}
     398:	e1a0f00e 	mov	pc, lr

0000039c <__setup_mmu>:
     39c:	e2443901 	sub	r3, r4, #16384	; 0x4000
     3a0:	e3c330ff 	bic	r3, r3, #255	; 0xff
     3a4:	e3c33c3f 	bic	r3, r3, #16128	; 0x3f00
     3a8:	e1a00003 	mov	r0, r3
     3ac:	e1a09920 	lsr	r9, r0, #18
     3b0:	e1a09909 	lsl	r9, r9, #18
     3b4:	e289a201 	add	sl, r9, #268435456	; 0x10000000
     3b8:	e3a01012 	mov	r1, #18
     3bc:	e3811b03 	orr	r1, r1, #3072	; 0xc00
     3c0:	e2832901 	add	r2, r3, #16384	; 0x4000
     3c4:	e1510009 	cmp	r1, r9
     3c8:	215a0001 	cmpcs	sl, r1
     3cc:	e3c1101c 	bic	r1, r1, #28
     3d0:	33811010 	orrcc	r1, r1, #16
     3d4:	21811006 	orrcs	r1, r1, r6
     3d8:	e4801004 	str	r1, [r0], #4
     3dc:	e2811601 	add	r1, r1, #1048576	; 0x100000
     3e0:	e1300002 	teq	r0, r2
     3e4:	1afffff6 	bne	3c4 <__setup_mmu+0x28>
     3e8:	e3861004 	orr	r1, r6, #4
     3ec:	e3811b03 	orr	r1, r1, #3072	; 0xc00
     3f0:	e1a0200f 	mov	r2, pc
     3f4:	e1a02a22 	lsr	r2, r2, #20
     3f8:	e1811a02 	orr	r1, r1, r2, lsl #20
     3fc:	e0830102 	add	r0, r3, r2, lsl #2
     400:	e4801004 	str	r1, [r0], #4
     404:	e2811601 	add	r1, r1, #1048576	; 0x100000
     408:	e5801000 	str	r1, [r0]
     40c:	e1a0f00e 	mov	pc, lr

00000410 <__armv6_mmu_cache_on>:
     410:	ee110f10 	mrc	15, 0, r0, cr1, cr0, {0}
     414:	e3c00002 	bic	r0, r0, #2
     418:	e3800501 	orr	r0, r0, #4194304	; 0x400000
     41c:	ee010f10 	mcr	15, 0, r0, cr1, cr0, {0}
     420:	eaffffff 	b	424 <__arm926ejs_mmu_cache_on>

00000424 <__arm926ejs_mmu_cache_on>:
     424:	e1a0c00e 	mov	ip, lr
     428:	e3a0601e 	mov	r6, #30
     42c:	ebffffda 	bl	39c <__setup_mmu>
     430:	e3a00000 	mov	r0, #0
     434:	ee070f9a 	mcr	15, 0, r0, cr7, cr10, {4}
     438:	ee080f17 	mcr	15, 0, r0, cr8, cr7, {0}
     43c:	ee110f10 	mrc	15, 0, r0, cr1, cr0, {0}
     440:	e3800a05 	orr	r0, r0, #20480	; 0x5000
     444:	e3800030 	orr	r0, r0, #48	; 0x30
     448:	eb00002c 	bl	500 <__common_mmu_cache_on>
     44c:	e3a00000 	mov	r0, #0
     450:	ee080f17 	mcr	15, 0, r0, cr8, cr7, {0}
     454:	e1a0f00c 	mov	pc, ip

00000458 <__armv7_mmu_cache_on>:
     458:	e1a0c00e 	mov	ip, lr
     45c:	ee10bf91 	mrc	15, 0, fp, cr0, cr1, {4}
     460:	e31b000f 	tst	fp, #15
     464:	13a0600e 	movne	r6, #14
     468:	1bffffcb 	blne	39c <__setup_mmu>
     46c:	e3a00000 	mov	r0, #0
     470:	ee070f9a 	mcr	15, 0, r0, cr7, cr10, {4}
     474:	e31b000f 	tst	fp, #15
     478:	1e080f17 	mcrne	15, 0, r0, cr8, cr7, {0}
     47c:	ee110f10 	mrc	15, 0, r0, cr1, cr0, {0}
     480:	e3c00201 	bic	r0, r0, #268435456	; 0x10000000
     484:	e3800a05 	orr	r0, r0, #20480	; 0x5000
     488:	e380003c 	orr	r0, r0, #60	; 0x3c
     48c:	e3c00002 	bic	r0, r0, #2
     490:	e3800501 	orr	r0, r0, #4194304	; 0x400000
     494:	1e126f50 	mrcne	15, 0, r6, cr2, cr0, {2}
     498:	13800001 	orrne	r0, r0, #1
     49c:	13e01002 	mvnne	r1, #2
     4a0:	e3c66102 	bic	r6, r6, #-2147483648	; 0x80000000
     4a4:	e3c66003 	bic	r6, r6, #3
     4a8:	1e023f10 	mcrne	15, 0, r3, cr2, cr0, {0}
     4ac:	1e031f10 	mcrne	15, 0, r1, cr3, cr0, {0}
     4b0:	1e026f50 	mcrne	15, 0, r6, cr2, cr0, {2}
     4b4:	ee070f95 	mcr	15, 0, r0, cr7, cr5, {4}
     4b8:	ee010f10 	mcr	15, 0, r0, cr1, cr0, {0}
     4bc:	ee110f10 	mrc	15, 0, r0, cr1, cr0, {0}
     4c0:	e3a00000 	mov	r0, #0
     4c4:	ee070f95 	mcr	15, 0, r0, cr7, cr5, {4}
     4c8:	e1a0f00c 	mov	pc, ip

000004cc <__fa526_cache_on>:
     4cc:	e1a0c00e 	mov	ip, lr
     4d0:	e3a0601e 	mov	r6, #30
     4d4:	ebffffb0 	bl	39c <__setup_mmu>
     4d8:	e3a00000 	mov	r0, #0
     4dc:	ee070f17 	mcr	15, 0, r0, cr7, cr7, {0}
     4e0:	ee070f9a 	mcr	15, 0, r0, cr7, cr10, {4}
     4e4:	ee080f17 	mcr	15, 0, r0, cr8, cr7, {0}
     4e8:	ee110f10 	mrc	15, 0, r0, cr1, cr0, {0}
     4ec:	e3800a01 	orr	r0, r0, #4096	; 0x1000
     4f0:	eb000002 	bl	500 <__common_mmu_cache_on>
     4f4:	e3a00000 	mov	r0, #0
     4f8:	ee080f17 	mcr	15, 0, r0, cr8, cr7, {0}
     4fc:	e1a0f00c 	mov	pc, ip

00000500 <__common_mmu_cache_on>:
     500:	e380000d 	orr	r0, r0, #13
     504:	e3e01000 	mvn	r1, #0
     508:	ee023f10 	mcr	15, 0, r3, cr2, cr0, {0}
     50c:	ee031f10 	mcr	15, 0, r1, cr3, cr0, {0}
     510:	ea000002 	b	520 <__common_mmu_cache_on+0x20>
     514:	e320f000 	nop	{0}
     518:	e320f000 	nop	{0}
     51c:	e320f000 	nop	{0}
     520:	ee010f10 	mcr	15, 0, r0, cr1, cr0, {0}
     524:	ee110f10 	mrc	15, 0, r0, cr1, cr0, {0}
     528:	e04ef020 	sub	pc, lr, r0, lsr #32

0000052c <call_cache_fn>:
     52c:	e28fc01c 	add	ip, pc, #28
     530:	ee109f10 	mrc	15, 0, r9, cr0, cr0, {0}
     534:	e59c1000 	ldr	r1, [ip]
     538:	e59c2004 	ldr	r2, [ip, #4]
     53c:	e0211009 	eor	r1, r1, r9
     540:	e1110002 	tst	r1, r2
     544:	008cf003 	addeq	pc, ip, r3
     548:	e28cc014 	add	ip, ip, #20
     54c:	eafffff8 	b	534 <call_cache_fn+0x8>

00000550 <proc_types>:
     550:	41000000 ff00f000 e1a0f00e e1a0f00e     ...A............
     560:	e1a0f00e 41007000 fff8fe00 e1a0f00e     .....p.A........
     570:	e1a0f00e e1a0f00e 41807200 ffffff00     .........r.A....
     580:	eaffffa7 ea000065 e1a0f00e 41007400     ....e........t.A
     590:	ff00ff00 eaffff71 ea00005a ea0000df     ....q...Z.......
     5a0:	41009400 ff00ff00 eaffff56 ea00004d     ...A....V...M...
     5b0:	ea000074 41069260 ff0ffff0 eaffff98     t...`..A........
     5c0:	ea000056 ea0000b7 00007000 0000f000     V........p......
     5d0:	e1a0f00e e1a0f00e e1a0f00e 4401a100     ...............D
     5e0:	ffffffe0 eaffff8e ea00004c ea0000b2     ........L.......
     5f0:	6901b110 fffffff0 eaffff89 ea000047     ...i........G...
     600:	ea0000ad 56056900 ffffff00 eaffff84     .....i.V........
     610:	ea000042 ea0000a8 56158000 fffff000     B..........V....
     620:	eaffff7f ea00003d ea00009e 56050000     ....=..........V
     630:	ff0f0000 eaffff7a ea000038 ea000099     ....z...8.......
     640:	66015261 ff01fff1 eaffff9f ea000033     aR.f........3...
     650:	ea00005a 00020000 000f0000 eaffff70     Z...........p...
     660:	ea00002e ea000094 00050000 000f0000     ................
     670:	eaffff6b ea000029 ea00008f 00060000     k...)...........
     680:	000f0000 eaffff66 ea000024 ea000085     ....f...$.......
     690:	0007b000 000ff000 eaffff5c ea00001f     ........\.......
     6a0:	ea00004b 000f0000 000f0000 eaffff69     K...........i...
     6b0:	ea000021 ea00004c 00000000 00000000     !...L...........
     6c0:	e1a0f00e e1a0f00e e1a0f00e e320f000     .............. .
     6d0:	e320f000 e320f000 e320f000 e320f000     .. ... ... ... .

000006e0 <cache_off>:
     6e0:	e3a0300c 	mov	r3, #12
     6e4:	eaffff90 	b	52c <call_cache_fn>

000006e8 <__armv4_mpu_cache_off>:
     6e8:	ee110f10 	mrc	15, 0, r0, cr1, cr0, {0}
     6ec:	e3c0000d 	bic	r0, r0, #13
     6f0:	ee010f10 	mcr	15, 0, r0, cr1, cr0, {0}
     6f4:	e3a00000 	mov	r0, #0
     6f8:	ee070f9a 	mcr	15, 0, r0, cr7, cr10, {4}
     6fc:	ee070f16 	mcr	15, 0, r0, cr7, cr6, {0}
     700:	ee070f15 	mcr	15, 0, r0, cr7, cr5, {0}
     704:	e1a0f00e 	mov	pc, lr

00000708 <__armv3_mpu_cache_off>:
     708:	ee110f10 	mrc	15, 0, r0, cr1, cr0, {0}
     70c:	e3c0000d 	bic	r0, r0, #13
     710:	ee010f10 	mcr	15, 0, r0, cr1, cr0, {0}
     714:	e3a00000 	mov	r0, #0
     718:	ee070f10 	mcr	15, 0, r0, cr7, cr0, {0}
     71c:	e1a0f00e 	mov	pc, lr

00000720 <__armv4_mmu_cache_off>:
     720:	ee110f10 	mrc	15, 0, r0, cr1, cr0, {0}
     724:	e3c0000d 	bic	r0, r0, #13
     728:	ee010f10 	mcr	15, 0, r0, cr1, cr0, {0}
     72c:	e3a00000 	mov	r0, #0
     730:	ee070f17 	mcr	15, 0, r0, cr7, cr7, {0}
     734:	ee080f17 	mcr	15, 0, r0, cr8, cr7, {0}
     738:	e1a0f00e 	mov	pc, lr

0000073c <__armv7_mmu_cache_off>:
     73c:	ee110f10 	mrc	15, 0, r0, cr1, cr0, {0}
     740:	e3c0000d 	bic	r0, r0, #13
     744:	ee010f10 	mcr	15, 0, r0, cr1, cr0, {0}
     748:	e1a0c00e 	mov	ip, lr
     74c:	eb000026 	bl	7ec <__armv7_mmu_cache_flush>
     750:	e3a00000 	mov	r0, #0
     754:	ee080f17 	mcr	15, 0, r0, cr8, cr7, {0}
     758:	ee070fd5 	mcr	15, 0, r0, cr7, cr5, {6}
     75c:	ee070f9a 	mcr	15, 0, r0, cr7, cr10, {4}
     760:	ee070f95 	mcr	15, 0, r0, cr7, cr5, {4}
     764:	e1a0f00c 	mov	pc, ip
     768:	e320f000 	nop	{0}
     76c:	e320f000 	nop	{0}
     770:	e320f000 	nop	{0}
     774:	e320f000 	nop	{0}
     778:	e320f000 	nop	{0}
     77c:	e320f000 	nop	{0}

00000780 <cache_clean_flush>:
     780:	e3a03010 	mov	r3, #16
     784:	eaffff68 	b	52c <call_cache_fn>

00000788 <__armv4_mpu_cache_flush>:
     788:	e3a02001 	mov	r2, #1
     78c:	e3a03000 	mov	r3, #0
     790:	ee07cf16 	mcr	15, 0, ip, cr7, cr6, {0}
     794:	e3a010e0 	mov	r1, #224	; 0xe0
     798:	e381333f 	orr	r3, r1, #-67108864	; 0xfc000000
     79c:	ee073f5e 	mcr	15, 0, r3, cr7, cr14, {2}
     7a0:	e2533301 	subs	r3, r3, #67108864	; 0x4000000
     7a4:	2afffffc 	bcs	79c <__armv4_mpu_cache_flush+0x14>
     7a8:	e2511020 	subs	r1, r1, #32
     7ac:	2afffff9 	bcs	798 <__armv4_mpu_cache_flush+0x10>
     7b0:	e3320000 	teq	r2, #0
     7b4:	1e07cf15 	mcrne	15, 0, ip, cr7, cr5, {0}
     7b8:	ee07cf9a 	mcr	15, 0, ip, cr7, cr10, {4}
     7bc:	e1a0f00e 	mov	pc, lr

000007c0 <__fa526_cache_flush>:
     7c0:	e3a01000 	mov	r1, #0
     7c4:	ee071f1e 	mcr	15, 0, r1, cr7, cr14, {0}
     7c8:	ee071f15 	mcr	15, 0, r1, cr7, cr5, {0}
     7cc:	ee071f9a 	mcr	15, 0, r1, cr7, cr10, {4}
     7d0:	e1a0f00e 	mov	pc, lr

000007d4 <__armv6_mmu_cache_flush>:
     7d4:	e3a01000 	mov	r1, #0
     7d8:	ee071f1e 	mcr	15, 0, r1, cr7, cr14, {0}
     7dc:	ee071f15 	mcr	15, 0, r1, cr7, cr5, {0}
     7e0:	ee071f1f 	mcr	15, 0, r1, cr7, cr15, {0}
     7e4:	ee071f9a 	mcr	15, 0, r1, cr7, cr10, {4}
     7e8:	e1a0f00e 	mov	pc, lr

000007ec <__armv7_mmu_cache_flush>:
     7ec:	ee10afb1 	mrc	15, 0, sl, cr0, cr1, {5}
     7f0:	e31a080f 	tst	sl, #983040	; 0xf0000
     7f4:	e3a0a000 	mov	sl, #0
     7f8:	0a000001 	beq	804 <hierarchical>
     7fc:	ee07af1e 	mcr	15, 0, sl, cr7, cr14, {0}
     800:	ea000023 	b	894 <iflush>

00000804 <hierarchical>:
     804:	ee07afba 	mcr	15, 0, sl, cr7, cr10, {5}
     808:	e92d0eff 	push	{r0, r1, r2, r3, r4, r5, r6, r7, r9, sl, fp}
     80c:	ee300f30 	mrc	15, 1, r0, cr0, cr0, {1}
     810:	e2103407 	ands	r3, r0, #117440512	; 0x7000000
     814:	e1a03ba3 	lsr	r3, r3, #23
     818:	0a00001a 	beq	888 <finished>
     81c:	e3a0a000 	mov	sl, #0

00000820 <loop1>:
     820:	e08a20aa 	add	r2, sl, sl, lsr #1
     824:	e1a01230 	lsr	r1, r0, r2
     828:	e2011007 	and	r1, r1, #7
     82c:	e3510002 	cmp	r1, #2
     830:	ba000011 	blt	87c <skip>
     834:	ee40af10 	mcr	15, 2, sl, cr0, cr0, {0}
     838:	ee07af95 	mcr	15, 0, sl, cr7, cr5, {4}
     83c:	ee301f10 	mrc	15, 1, r1, cr0, cr0, {0}
     840:	e2012007 	and	r2, r1, #7
     844:	e2822004 	add	r2, r2, #4
     848:	e59f40e4 	ldr	r4, [pc, #228]	; 934 <__armv3_mmu_cache_flush+0x14>
     84c:	e01441a1 	ands	r4, r4, r1, lsr #3
     850:	e16f5f14 	clz	r5, r4
     854:	e59f70dc 	ldr	r7, [pc, #220]	; 938 <__armv3_mmu_cache_flush+0x18>
     858:	e01776a1 	ands	r7, r7, r1, lsr #13

0000085c <loop2>:
     85c:	e1a09004 	mov	r9, r4

00000860 <loop3>:
     860:	e18ab519 	orr	fp, sl, r9, lsl r5
     864:	e18bb217 	orr	fp, fp, r7, lsl r2
     868:	ee07bf5e 	mcr	15, 0, fp, cr7, cr14, {2}
     86c:	e2599001 	subs	r9, r9, #1
     870:	aafffffa 	bge	860 <loop3>
     874:	e2577001 	subs	r7, r7, #1
     878:	aafffff7 	bge	85c <loop2>

0000087c <skip>:
     87c:	e28aa002 	add	sl, sl, #2
     880:	e153000a 	cmp	r3, sl
     884:	caffffe5 	bgt	820 <loop1>

00000888 <finished>:
     888:	e8bd0eff 	pop	{r0, r1, r2, r3, r4, r5, r6, r7, r9, sl, fp}
     88c:	e3a0a000 	mov	sl, #0
     890:	ee40af10 	mcr	15, 2, sl, cr0, cr0, {0}

00000894 <iflush>:
     894:	ee07af9a 	mcr	15, 0, sl, cr7, cr10, {4}
     898:	ee07af15 	mcr	15, 0, sl, cr7, cr5, {0}
     89c:	ee07af9a 	mcr	15, 0, sl, cr7, cr10, {4}
     8a0:	ee07af95 	mcr	15, 0, sl, cr7, cr5, {4}
     8a4:	e1a0f00e 	mov	pc, lr

000008a8 <__armv5tej_mmu_cache_flush>:
     8a8:	ee17ff7e 	mrc	15, 0, APSR_nzcv, cr7, cr14, {3}
     8ac:	1afffffd 	bne	8a8 <__armv5tej_mmu_cache_flush>
     8b0:	ee070f15 	mcr	15, 0, r0, cr7, cr5, {0}
     8b4:	ee070f9a 	mcr	15, 0, r0, cr7, cr10, {4}
     8b8:	e1a0f00e 	mov	pc, lr

000008bc <__armv4_mmu_cache_flush>:
     8bc:	e3a02801 	mov	r2, #65536	; 0x10000
     8c0:	e3a0b020 	mov	fp, #32
     8c4:	ee103f30 	mrc	15, 0, r3, cr0, cr0, {1}
     8c8:	e1330009 	teq	r3, r9
     8cc:	0a000009 	beq	8f8 <no_cache_id>
     8d0:	e1a01923 	lsr	r1, r3, #18
     8d4:	e2011007 	and	r1, r1, #7
     8d8:	e3a02b01 	mov	r2, #1024	; 0x400
     8dc:	e1a02112 	lsl	r2, r2, r1
     8e0:	e3130901 	tst	r3, #16384	; 0x4000
     8e4:	108220a2 	addne	r2, r2, r2, lsr #1
     8e8:	e1a03623 	lsr	r3, r3, #12
     8ec:	e2033003 	and	r3, r3, #3
     8f0:	e3a0b008 	mov	fp, #8
     8f4:	e1a0b31b 	lsl	fp, fp, r3

000008f8 <no_cache_id>:
     8f8:	e1a0100f 	mov	r1, pc
     8fc:	e3c1103f 	bic	r1, r1, #63	; 0x3f
     900:	e0812002 	add	r2, r1, r2
     904:	e691300b 	ldr	r3, [r1], fp
     908:	e1310002 	teq	r1, r2
     90c:	1afffffc 	bne	904 <no_cache_id+0xc>
     910:	ee071f15 	mcr	15, 0, r1, cr7, cr5, {0}
     914:	ee071f16 	mcr	15, 0, r1, cr7, cr6, {0}
     918:	ee071f9a 	mcr	15, 0, r1, cr7, cr10, {4}
     91c:	e1a0f00e 	mov	pc, lr

00000920 <__armv3_mmu_cache_flush>:
     920:	e3a01000 	mov	r1, #0
     924:	ee071f10 	mcr	15, 0, r1, cr7, cr0, {0}
     928:	e1a0f00e 	mov	pc, lr
     92c:	edfe0dd0 	.word	0xedfe0dd0
     930:	00041d18 	.word	0x00041d18
     934:	000003ff 	.word	0x000003ff
     938:	00007fff 	.word	0x00007fff
     93c:	e320f000 	nop	{0}

00000940 <__hyp_reentry_vectors>:
     940:	eafffffe 	b	940 <__hyp_reentry_vectors>
     944:	eafffffe 	b	944 <__hyp_reentry_vectors+0x4>
     948:	eafffffe 	b	948 <__hyp_reentry_vectors+0x8>
     94c:	eafffffe 	b	94c <__hyp_reentry_vectors+0xc>
     950:	eafffffe 	b	950 <__hyp_reentry_vectors+0x10>
     954:	ea000001 	b	960 <__enter_kernel>
     958:	eafffffe 	b	958 <__hyp_reentry_vectors+0x18>
     95c:	eafffffe 	b	95c <__hyp_reentry_vectors+0x1c>

00000960 <__enter_kernel>:
     960:	e3a00000 	mov	r0, #0
     964:	e1a0f004 	mov	pc, r4

00000968 <reloc_code_end>:
     968:	e320f000 	nop	{0}
     96c:	e320f000 	nop	{0}
     970:	e320f000 	nop	{0}
     974:	e320f000 	nop	{0}
     978:	e320f000 	nop	{0}
     97c:	e320f000 	nop	{0}

00000980 <error>:
     980:	e59f3030 	ldr	r3, [pc, #48]	; 9b8 <error+0x38>
     984:	e08f3003 	add	r3, pc, r3
     988:	e4d32001 	ldrb	r2, [r3], #1
     98c:	e3520000 	cmp	r2, #0
     990:	1afffffc 	bne	988 <error+0x8>
     994:	e4d03001 	ldrb	r3, [r0], #1
     998:	e3530000 	cmp	r3, #0
     99c:	1afffffc 	bne	994 <error+0x14>
     9a0:	e59f3014 	ldr	r3, [pc, #20]	; 9bc <error+0x3c>
     9a4:	e08f3003 	add	r3, pc, r3
     9a8:	e4d32001 	ldrb	r2, [r3], #1
     9ac:	e3520000 	cmp	r2, #0
     9b0:	1afffffc 	bne	9a8 <error+0x28>
     9b4:	eafffffe 	b	9b4 <error+0x34>
     9b8:	00005b70 	.word	0x00005b70
     9bc:	00005b54 	.word	0x00005b54

000009c0 <__div0>:
     9c0:	e59f0004 	ldr	r0, [pc, #4]	; 9cc <__div0+0xc>
     9c4:	e08f0000 	add	r0, pc, r0
     9c8:	eaffffec 	b	980 <error>
     9cc:	00005b48 	.word	0x00005b48

000009d0 <decompress_kernel>:
     9d0:	e59fc108 	ldr	ip, [pc, #264]	; ae0 <decompress_kernel+0x110>
     9d4:	e92d4038 	push	{r3, r4, r5, lr}
     9d8:	e08fc00c 	add	ip, pc, ip
     9dc:	e59fe100 	ldr	lr, [pc, #256]	; ae4 <decompress_kernel+0x114>
     9e0:	e79c400e 	ldr	r4, [ip, lr]
     9e4:	e3a0e201 	mov	lr, #268435456	; 0x10000000
     9e8:	e59ee000 	ldr	lr, [lr]
     9ec:	e5840000 	str	r0, [r4]
     9f0:	e59f40f0 	ldr	r4, [pc, #240]	; ae8 <decompress_kernel+0x118>
     9f4:	e1a0ea2e 	lsr	lr, lr, #20
     9f8:	e20e500f 	and	r5, lr, #15
     9fc:	e3550005 	cmp	r5, #5
     a00:	e79c4004 	ldr	r4, [ip, r4]
     a04:	e5841000 	str	r1, [r4]
     a08:	e59f10dc 	ldr	r1, [pc, #220]	; aec <decompress_kernel+0x11c>
     a0c:	e79c1001 	ldr	r1, [ip, r1]
     a10:	e5812000 	str	r2, [r1]
     a14:	e59f20d4 	ldr	r2, [pc, #212]	; af0 <decompress_kernel+0x120>
     a18:	e79c2002 	ldr	r2, [ip, r2]
     a1c:	e5823000 	str	r3, [r2]
     a20:	e3a03000 	mov	r3, #0
     a24:	0a000024 	beq	abc <decompress_kernel+0xec>
     a28:	e20ee0f0 	and	lr, lr, #240	; 0xf0
     a2c:	e35e0050 	cmp	lr, #80	; 0x50
     a30:	0a000021 	beq	abc <decompress_kernel+0xec>
     a34:	e59f20b8 	ldr	r2, [pc, #184]	; af4 <decompress_kernel+0x124>
     a38:	e3413383 	movt	r3, #4995	; 0x1383
     a3c:	e79c2002 	ldr	r2, [ip, r2]
     a40:	e5823000 	str	r3, [r2]
     a44:	e59f20ac 	ldr	r2, [pc, #172]	; af8 <decompress_kernel+0x128>
     a48:	e3a018ff 	mov	r1, #16711680	; 0xff0000
     a4c:	e59f30a8 	ldr	r3, [pc, #168]	; afc <decompress_kernel+0x12c>
     a50:	e79c2002 	ldr	r2, [ip, r2]
     a54:	e08f3003 	add	r3, pc, r3
     a58:	e5821000 	str	r1, [r2]
     a5c:	e3a0180f 	mov	r1, #983040	; 0xf0000
     a60:	e59f2098 	ldr	r2, [pc, #152]	; b00 <decompress_kernel+0x130>
     a64:	e79c2002 	ldr	r2, [ip, r2]
     a68:	e5821000 	str	r1, [r2]
     a6c:	e4d32001 	ldrb	r2, [r3], #1
     a70:	e3520000 	cmp	r2, #0
     a74:	1afffffc 	bne	a6c <decompress_kernel+0x9c>
     a78:	e59f3084 	ldr	r3, [pc, #132]	; b04 <decompress_kernel+0x134>
     a7c:	e1a02000 	mov	r2, r0
     a80:	e59f1080 	ldr	r1, [pc, #128]	; b08 <decompress_kernel+0x138>
     a84:	e79c0003 	ldr	r0, [ip, r3]
     a88:	e59f307c 	ldr	r3, [pc, #124]	; b0c <decompress_kernel+0x13c>
     a8c:	e79c1001 	ldr	r1, [ip, r1]
     a90:	e79c3003 	ldr	r3, [ip, r3]
     a94:	e0601001 	rsb	r1, r0, r1
     a98:	eb000a3e 	bl	3398 <do_decompress>
     a9c:	e59f306c 	ldr	r3, [pc, #108]	; b10 <decompress_kernel+0x140>
     aa0:	e08f3003 	add	r3, pc, r3
     aa4:	e3500000 	cmp	r0, #0
     aa8:	1a000008 	bne	ad0 <decompress_kernel+0x100>
     aac:	e4d32001 	ldrb	r2, [r3], #1
     ab0:	e3520000 	cmp	r2, #0
     ab4:	1afffffc 	bne	aac <decompress_kernel+0xdc>
     ab8:	e8bd8038 	pop	{r3, r4, r5, pc}
     abc:	e59f2030 	ldr	r2, [pc, #48]	; af4 <decompress_kernel+0x124>
     ac0:	e34132c3 	movt	r3, #4803	; 0x12c3
     ac4:	e79c2002 	ldr	r2, [ip, r2]
     ac8:	e5823000 	str	r3, [r2]
     acc:	eaffffdc 	b	a44 <decompress_kernel+0x74>
     ad0:	e59f003c 	ldr	r0, [pc, #60]	; b14 <decompress_kernel+0x144>
     ad4:	e08f0000 	add	r0, pc, r0
     ad8:	e8bd4038 	pop	{r3, r4, r5, lr}
     adc:	eaffffa7 	b	980 <error>
     ae0:	0028f498 	.word	0x0028f498
     ae4:	00000020 	.word	0x00000020
     ae8:	0000002c 	.word	0x0000002c
     aec:	00000018 	.word	0x00000018
     af0:	00000024 	.word	0x00000024
     af4:	00000000 	.word	0x00000000
     af8:	00000010 	.word	0x00000010
     afc:	00005ad4 	.word	0x00005ad4
     b00:	00000028 	.word	0x00000028
     b04:	0000000c 	.word	0x0000000c
     b08:	00000004 	.word	0x00000004
     b0c:	0000001c 	.word	0x0000001c
     b10:	00005aa0 	.word	0x00005aa0
     b14:	00005a88 	.word	0x00005a88

00000b18 <malloc>:
     b18:	e250c000 	subs	ip, r0, #0
     b1c:	e59f3070 	ldr	r3, [pc, #112]	; b94 <malloc+0x7c>
     b20:	b3a00000 	movlt	r0, #0
     b24:	e08f3003 	add	r3, pc, r3
     b28:	b12fff1e 	bxlt	lr
     b2c:	e59f2064 	ldr	r2, [pc, #100]	; b98 <malloc+0x80>
     b30:	e7931002 	ldr	r1, [r3, r2]
     b34:	e5912000 	ldr	r2, [r1]
     b38:	e3520000 	cmp	r2, #0
     b3c:	059f2058 	ldreq	r2, [pc, #88]	; b9c <malloc+0x84>
     b40:	07932002 	ldreq	r2, [r3, r2]
     b44:	05922000 	ldreq	r2, [r2]
     b48:	e2822003 	add	r2, r2, #3
     b4c:	e3c20003 	bic	r0, r2, #3
     b50:	e59f2048 	ldr	r2, [pc, #72]	; ba0 <malloc+0x88>
     b54:	e080c00c 	add	ip, r0, ip
     b58:	e581c000 	str	ip, [r1]
     b5c:	e7932002 	ldr	r2, [r3, r2]
     b60:	e5922000 	ldr	r2, [r2]
     b64:	e3520000 	cmp	r2, #0
     b68:	0a000001 	beq	b74 <malloc+0x5c>
     b6c:	e15c0002 	cmp	ip, r2
     b70:	2a000005 	bcs	b8c <malloc+0x74>
     b74:	e59f2028 	ldr	r2, [pc, #40]	; ba4 <malloc+0x8c>
     b78:	e7933002 	ldr	r3, [r3, r2]
     b7c:	e5932000 	ldr	r2, [r3]
     b80:	e2822001 	add	r2, r2, #1
     b84:	e5832000 	str	r2, [r3]
     b88:	e12fff1e 	bx	lr
     b8c:	e3a00000 	mov	r0, #0
     b90:	e12fff1e 	bx	lr
     b94:	0028f34c 	.word	0x0028f34c
     b98:	00000008 	.word	0x00000008
     b9c:	0000002c 	.word	0x0000002c
     ba0:	00000018 	.word	0x00000018
     ba4:	00000014 	.word	0x00000014

00000ba8 <nofill>:
     ba8:	e3e00000 	mvn	r0, #0
     bac:	e12fff1e 	bx	lr

00000bb0 <zlib_updatewindow>:
     bb0:	e92d40f8 	push	{r3, r4, r5, r6, r7, lr}
     bb4:	e1a07000 	mov	r7, r0
     bb8:	e590401c 	ldr	r4, [r0, #28]
     bbc:	e5905010 	ldr	r5, [r0, #16]
     bc0:	e5946024 	ldr	r6, [r4, #36]	; 0x24
     bc4:	e0655001 	rsb	r5, r5, r1
     bc8:	e1550006 	cmp	r5, r6
     bcc:	2a000016 	bcs	c2c <zlib_updatewindow+0x7c>
     bd0:	e594302c 	ldr	r3, [r4, #44]	; 0x2c
     bd4:	e5940030 	ldr	r0, [r4, #48]	; 0x30
     bd8:	e0636006 	rsb	r6, r3, r6
     bdc:	e597100c 	ldr	r1, [r7, #12]
     be0:	e1550006 	cmp	r5, r6
     be4:	31a06005 	movcc	r6, r5
     be8:	e0800003 	add	r0, r0, r3
     bec:	e0651001 	rsb	r1, r5, r1
     bf0:	e1a02006 	mov	r2, r6
     bf4:	eb000aa6 	bl	3694 <memcpy>
     bf8:	e0555006 	subs	r5, r5, r6
     bfc:	1a000014 	bne	c54 <zlib_updatewindow+0xa4>
     c00:	e594202c 	ldr	r2, [r4, #44]	; 0x2c
     c04:	e5943024 	ldr	r3, [r4, #36]	; 0x24
     c08:	e0862002 	add	r2, r6, r2
     c0c:	e584202c 	str	r2, [r4, #44]	; 0x2c
     c10:	e1520003 	cmp	r2, r3
     c14:	e5942028 	ldr	r2, [r4, #40]	; 0x28
     c18:	0584502c 	streq	r5, [r4, #44]	; 0x2c
     c1c:	e1530002 	cmp	r3, r2
     c20:	80866002 	addhi	r6, r6, r2
     c24:	85846028 	strhi	r6, [r4, #40]	; 0x28
     c28:	e8bd80f8 	pop	{r3, r4, r5, r6, r7, pc}
     c2c:	e590100c 	ldr	r1, [r0, #12]
     c30:	e1a02006 	mov	r2, r6
     c34:	e5940030 	ldr	r0, [r4, #48]	; 0x30
     c38:	e0661001 	rsb	r1, r6, r1
     c3c:	eb000a94 	bl	3694 <memcpy>
     c40:	e5943024 	ldr	r3, [r4, #36]	; 0x24
     c44:	e3a02000 	mov	r2, #0
     c48:	e584202c 	str	r2, [r4, #44]	; 0x2c
     c4c:	e5843028 	str	r3, [r4, #40]	; 0x28
     c50:	e8bd80f8 	pop	{r3, r4, r5, r6, r7, pc}
     c54:	e597100c 	ldr	r1, [r7, #12]
     c58:	e1a02005 	mov	r2, r5
     c5c:	e5940030 	ldr	r0, [r4, #48]	; 0x30
     c60:	e0651001 	rsb	r1, r5, r1
     c64:	eb000a8a 	bl	3694 <memcpy>
     c68:	e5943024 	ldr	r3, [r4, #36]	; 0x24
     c6c:	e584502c 	str	r5, [r4, #44]	; 0x2c
     c70:	e5843028 	str	r3, [r4, #40]	; 0x28
     c74:	e8bd80f8 	pop	{r3, r4, r5, r6, r7, pc}

00000c78 <zlib_inflate_table>:
     c78:	e92d0ff0 	push	{r4, r5, r6, r7, r8, r9, sl, fp}
     c7c:	e24dd078 	sub	sp, sp, #120	; 0x78
     c80:	e28d4036 	add	r4, sp, #54	; 0x36
     c84:	e28dc056 	add	ip, sp, #86	; 0x56
     c88:	e59d709c 	ldr	r7, [sp, #156]	; 0x9c
     c8c:	e28d6038 	add	r6, sp, #56	; 0x38
     c90:	e58d3014 	str	r3, [sp, #20]
     c94:	e3a03000 	mov	r3, #0
     c98:	e58d1024 	str	r1, [sp, #36]	; 0x24
     c9c:	e1e430b2 	strh	r3, [r4, #2]!
     ca0:	e154000c 	cmp	r4, ip
     ca4:	1afffffc 	bne	c9c <zlib_inflate_table+0x24>
     ca8:	e3520000 	cmp	r2, #0
     cac:	0a00000b 	beq	ce0 <zlib_inflate_table+0x68>
     cb0:	e59d1024 	ldr	r1, [sp, #36]	; 0x24
     cb4:	e3a03000 	mov	r3, #0
     cb8:	e2414002 	sub	r4, r1, #2
     cbc:	e1f410b2 	ldrh	r1, [r4, #2]!
     cc0:	e28d5078 	add	r5, sp, #120	; 0x78
     cc4:	e2833001 	add	r3, r3, #1
     cc8:	e1530002 	cmp	r3, r2
     ccc:	e0851081 	add	r1, r5, r1, lsl #1
     cd0:	e15154b0 	ldrh	r5, [r1, #-64]	; 0xffffffc0
     cd4:	e2855001 	add	r5, r5, #1
     cd8:	e14154b0 	strh	r5, [r1, #-64]	; 0xffffffc0
     cdc:	1afffff6 	bne	cbc <zlib_inflate_table+0x44>
     ce0:	e59d5098 	ldr	r5, [sp, #152]	; 0x98
     ce4:	e28d3058 	add	r3, sp, #88	; 0x58
     ce8:	e5954000 	ldr	r4, [r5]
     cec:	e3a0500f 	mov	r5, #15
     cf0:	e17310b2 	ldrh	r1, [r3, #-2]!
     cf4:	e3510000 	cmp	r1, #0
     cf8:	1a000014 	bne	d50 <zlib_inflate_table+0xd8>
     cfc:	e2555001 	subs	r5, r5, #1
     d00:	1afffffa 	bne	cf0 <zlib_inflate_table+0x78>
     d04:	e59d6014 	ldr	r6, [sp, #20]
     d08:	e3a01000 	mov	r1, #0
     d0c:	e59d7098 	ldr	r7, [sp, #152]	; 0x98
     d10:	e1a00001 	mov	r0, r1
     d14:	e3a02001 	mov	r2, #1
     d18:	e3a0c040 	mov	ip, #64	; 0x40
     d1c:	e5963000 	ldr	r3, [r6]
     d20:	e2834008 	add	r4, r3, #8
     d24:	e5c3c000 	strb	ip, [r3]
     d28:	e5c32001 	strb	r2, [r3, #1]
     d2c:	e1c310b2 	strh	r1, [r3, #2]
     d30:	e5c3c004 	strb	ip, [r3, #4]
     d34:	e5c32005 	strb	r2, [r3, #5]
     d38:	e1c310b6 	strh	r1, [r3, #6]
     d3c:	e5864000 	str	r4, [r6]
     d40:	e5872000 	str	r2, [r7]
     d44:	e28dd078 	add	sp, sp, #120	; 0x78
     d48:	e8bd0ff0 	pop	{r4, r5, r6, r7, r8, r9, sl, fp}
     d4c:	e12fff1e 	bx	lr
     d50:	e3550000 	cmp	r5, #0
     d54:	128d3038 	addne	r3, sp, #56	; 0x38
     d58:	13a09001 	movne	r9, #1
     d5c:	0affffe8 	beq	d04 <zlib_inflate_table+0x8c>
     d60:	e1f310b2 	ldrh	r1, [r3, #2]!
     d64:	e3510000 	cmp	r1, #0
     d68:	1a0000d4 	bne	10c0 <zlib_inflate_table+0x448>
     d6c:	e2899001 	add	r9, r9, #1
     d70:	e3590010 	cmp	r9, #16
     d74:	1afffff9 	bne	d60 <zlib_inflate_table+0xe8>
     d78:	e58d9010 	str	r9, [sp, #16]
     d7c:	e28d1038 	add	r1, sp, #56	; 0x38
     d80:	e3a03001 	mov	r3, #1
     d84:	e1f140b2 	ldrh	r4, [r1, #2]!
     d88:	e0743083 	rsbs	r3, r4, r3, lsl #1
     d8c:	4a0000c9 	bmi	10b8 <zlib_inflate_table+0x440>
     d90:	e151000c 	cmp	r1, ip
     d94:	1afffffa 	bne	d84 <zlib_inflate_table+0x10c>
     d98:	e3530000 	cmp	r3, #0
     d9c:	0a000005 	beq	db8 <zlib_inflate_table+0x140>
     da0:	e2703001 	rsbs	r3, r0, #1
     da4:	33a03000 	movcc	r3, #0
     da8:	e3550001 	cmp	r5, #1
     dac:	13833001 	orrne	r3, r3, #1
     db0:	e3530000 	cmp	r3, #0
     db4:	1a0000bf 	bne	10b8 <zlib_inflate_table+0x440>
     db8:	e3a0c000 	mov	ip, #0
     dbc:	e28d1078 	add	r1, sp, #120	; 0x78
     dc0:	e28d4054 	add	r4, sp, #84	; 0x54
     dc4:	e1a0300c 	mov	r3, ip
     dc8:	e161c1be 	strh	ip, [r1, #-30]!	; 0xffffffe2
     dcc:	e1f6c0b2 	ldrh	ip, [r6, #2]!
     dd0:	e08c3003 	add	r3, ip, r3
     dd4:	e1560004 	cmp	r6, r4
     dd8:	e6ff3073 	uxth	r3, r3
     ddc:	e1e130b2 	strh	r3, [r1, #2]!
     de0:	1afffff9 	bne	dcc <zlib_inflate_table+0x154>
     de4:	e3520000 	cmp	r2, #0
     de8:	0a00000e 	beq	e28 <zlib_inflate_table+0x1b0>
     dec:	e59d4024 	ldr	r4, [sp, #36]	; 0x24
     df0:	e3a03000 	mov	r3, #0
     df4:	e2441002 	sub	r1, r4, #2
     df8:	e1f1c0b2 	ldrh	ip, [r1, #2]!
     dfc:	e28d6078 	add	r6, sp, #120	; 0x78
     e00:	e35c0000 	cmp	ip, #0
     e04:	e086c08c 	add	ip, r6, ip, lsl #1
     e08:	115c42b0 	ldrhne	r4, [ip, #-32]	; 0xffffffe0
     e0c:	12846001 	addne	r6, r4, #1
     e10:	114c62b0 	strhne	r6, [ip, #-32]	; 0xffffffe0
     e14:	11a04084 	lslne	r4, r4, #1
     e18:	118730b4 	strhne	r3, [r7, r4]
     e1c:	e2833001 	add	r3, r3, #1
     e20:	e1530002 	cmp	r3, r2
     e24:	1afffff3 	bne	df8 <zlib_inflate_table+0x180>
     e28:	e3500000 	cmp	r0, #0
     e2c:	0a0000a9 	beq	10d8 <zlib_inflate_table+0x460>
     e30:	e3500001 	cmp	r0, #1
     e34:	0a0000e1 	beq	11c0 <zlib_inflate_table+0x548>
     e38:	e59f33b4 	ldr	r3, [pc, #948]	; 11f4 <zlib_inflate_table+0x57c>
     e3c:	e3e01000 	mvn	r1, #0
     e40:	e58d101c 	str	r1, [sp, #28]
     e44:	e08f3003 	add	r3, pc, r3
     e48:	e2832080 	add	r2, r3, #128	; 0x80
     e4c:	e28330c0 	add	r3, r3, #192	; 0xc0
     e50:	e58d2034 	str	r2, [sp, #52]	; 0x34
     e54:	e58d3030 	str	r3, [sp, #48]	; 0x30
     e58:	e3a0b001 	mov	fp, #1
     e5c:	e59d4010 	ldr	r4, [sp, #16]
     e60:	e06b3000 	rsb	r3, fp, r0
     e64:	e59d6014 	ldr	r6, [sp, #20]
     e68:	e2730000 	rsbs	r0, r3, #0
     e6c:	e1a0441b 	lsl	r4, fp, r4
     e70:	e0a00003 	adc	r0, r0, r3
     e74:	e30035af 	movw	r3, #1455	; 0x5af
     e78:	e58d002c 	str	r0, [sp, #44]	; 0x2c
     e7c:	e1540003 	cmp	r4, r3
     e80:	93a00000 	movls	r0, #0
     e84:	82000001 	andhi	r0, r0, #1
     e88:	e5966000 	ldr	r6, [r6]
     e8c:	e3500000 	cmp	r0, #0
     e90:	e244c001 	sub	ip, r4, #1
     e94:	e58d4018 	str	r4, [sp, #24]
     e98:	e58dc028 	str	ip, [sp, #40]	; 0x28
     e9c:	11a0000b 	movne	r0, fp
     ea0:	e58d600c 	str	r6, [sp, #12]
     ea4:	1affffa6 	bne	d44 <zlib_inflate_table+0xcc>
     ea8:	e59dc010 	ldr	ip, [sp, #16]
     eac:	e3e01000 	mvn	r1, #0
     eb0:	e1a0a000 	mov	sl, r0
     eb4:	e58d1020 	str	r1, [sp, #32]
     eb8:	e1a08005 	mov	r8, r5
     ebc:	e1a01009 	mov	r1, r9
     ec0:	e2477002 	sub	r7, r7, #2
     ec4:	e58d7008 	str	r7, [sp, #8]
     ec8:	e59d2008 	ldr	r2, [sp, #8]
     ecc:	e6ef6071 	uxtb	r6, r1
     ed0:	e59d301c 	ldr	r3, [sp, #28]
     ed4:	e1f240b2 	ldrh	r4, [r2, #2]!
     ed8:	e1530004 	cmp	r3, r4
     edc:	e58d2008 	str	r2, [sp, #8]
     ee0:	c3a02000 	movgt	r2, #0
     ee4:	c58d2000 	strgt	r2, [sp]
     ee8:	ca000008 	bgt	f10 <zlib_inflate_table+0x298>
     eec:	b59d5034 	ldrlt	r5, [sp, #52]	; 0x34
     ef0:	b1a04084 	lsllt	r4, r4, #1
     ef4:	b59d7030 	ldrlt	r7, [sp, #48]	; 0x30
     ef8:	a3a04000 	movge	r4, #0
     efc:	a3a03060 	movge	r3, #96	; 0x60
     f00:	a58d3000 	strge	r3, [sp]
     f04:	b7d55004 	ldrblt	r5, [r5, r4]
     f08:	b19740b4 	ldrhlt	r4, [r7, r4]
     f0c:	b58d5000 	strlt	r5, [sp]
     f10:	e1a05c1b 	lsl	r5, fp, ip
     f14:	e1a0111b 	lsl	r1, fp, r1
     f18:	e0853a30 	add	r3, r5, r0, lsr sl
     f1c:	e59d700c 	ldr	r7, [sp, #12]
     f20:	e0613003 	rsb	r3, r1, r3
     f24:	e58d5004 	str	r5, [sp, #4]
     f28:	e0615f01 	rsb	r5, r1, r1, lsl #30
     f2c:	e59d2004 	ldr	r2, [sp, #4]
     f30:	e0873103 	add	r3, r7, r3, lsl #2
     f34:	e59d7000 	ldr	r7, [sp]
     f38:	e1a05105 	lsl	r5, r5, #2
     f3c:	e0522001 	subs	r2, r2, r1
     f40:	e5c37000 	strb	r7, [r3]
     f44:	e5c36001 	strb	r6, [r3, #1]
     f48:	e1c340b2 	strh	r4, [r3, #2]
     f4c:	e0833005 	add	r3, r3, r5
     f50:	1afffff9 	bne	f3c <zlib_inflate_table+0x2c4>
     f54:	e2492001 	sub	r2, r9, #1
     f58:	e1a0321b 	lsl	r3, fp, r2
     f5c:	e1130000 	tst	r3, r0
     f60:	0a000002 	beq	f70 <zlib_inflate_table+0x2f8>
     f64:	e1a030a3 	lsr	r3, r3, #1
     f68:	e1130000 	tst	r3, r0
     f6c:	1afffffc 	bne	f64 <zlib_inflate_table+0x2ec>
     f70:	e3530000 	cmp	r3, #0
     f74:	12431001 	subne	r1, r3, #1
     f78:	10010000 	andne	r0, r1, r0
     f7c:	01a00003 	moveq	r0, r3
     f80:	10800003 	addne	r0, r0, r3
     f84:	e28d3078 	add	r3, sp, #120	; 0x78
     f88:	e0831089 	add	r1, r3, r9, lsl #1
     f8c:	e15134b0 	ldrh	r3, [r1, #-64]	; 0xffffffc0
     f90:	e2433001 	sub	r3, r3, #1
     f94:	e6ff3073 	uxth	r3, r3
     f98:	e14134b0 	strh	r3, [r1, #-64]	; 0xffffffc0
     f9c:	e3530000 	cmp	r3, #0
     fa0:	1a000006 	bne	fc0 <zlib_inflate_table+0x348>
     fa4:	e1590008 	cmp	r9, r8
     fa8:	0a000051 	beq	10f4 <zlib_inflate_table+0x47c>
     fac:	e59d4008 	ldr	r4, [sp, #8]
     fb0:	e59d5024 	ldr	r5, [sp, #36]	; 0x24
     fb4:	e1d430b2 	ldrh	r3, [r4, #2]
     fb8:	e1a03083 	lsl	r3, r3, #1
     fbc:	e19590b3 	ldrh	r9, [r5, r3]
     fc0:	e59d6010 	ldr	r6, [sp, #16]
     fc4:	e1590006 	cmp	r9, r6
     fc8:	9a000047 	bls	10ec <zlib_inflate_table+0x474>
     fcc:	e59d7028 	ldr	r7, [sp, #40]	; 0x28
     fd0:	e59d1020 	ldr	r1, [sp, #32]
     fd4:	e0005007 	and	r5, r0, r7
     fd8:	e1550001 	cmp	r5, r1
     fdc:	0a000042 	beq	10ec <zlib_inflate_table+0x474>
     fe0:	e59d2010 	ldr	r2, [sp, #16]
     fe4:	e35a0000 	cmp	sl, #0
     fe8:	01a0a002 	moveq	sl, r2
     fec:	e1590008 	cmp	r9, r8
     ff0:	e06ac009 	rsb	ip, sl, r9
     ff4:	e1a0100c 	mov	r1, ip
     ff8:	2a000011 	bcs	1044 <zlib_inflate_table+0x3cc>
     ffc:	e1a04089 	lsl	r4, r9, #1
    1000:	e28d6078 	add	r6, sp, #120	; 0x78
    1004:	e0863004 	add	r3, r6, r4
    1008:	e15334b0 	ldrh	r3, [r3, #-64]	; 0xffffffc0
    100c:	e0633c1b 	rsb	r3, r3, fp, lsl ip
    1010:	e3530000 	cmp	r3, #0
    1014:	c28d7038 	addgt	r7, sp, #56	; 0x38
    1018:	c0874004 	addgt	r4, r7, r4
    101c:	ca000004 	bgt	1034 <zlib_inflate_table+0x3bc>
    1020:	ea000007 	b	1044 <zlib_inflate_table+0x3cc>
    1024:	e1f420b2 	ldrh	r2, [r4, #2]!
    1028:	e0623083 	rsb	r3, r2, r3, lsl #1
    102c:	e3530000 	cmp	r3, #0
    1030:	da000003 	ble	1044 <zlib_inflate_table+0x3cc>
    1034:	e28cc001 	add	ip, ip, #1
    1038:	e08c200a 	add	r2, ip, sl
    103c:	e1520008 	cmp	r2, r8
    1040:	3afffff7 	bcc	1024 <zlib_inflate_table+0x3ac>
    1044:	e59d2018 	ldr	r2, [sp, #24]
    1048:	e30045af 	movw	r4, #1455	; 0x5af
    104c:	e59d302c 	ldr	r3, [sp, #44]	; 0x2c
    1050:	e0822c1b 	add	r2, r2, fp, lsl ip
    1054:	e58d2018 	str	r2, [sp, #24]
    1058:	e1520004 	cmp	r2, r4
    105c:	93a03000 	movls	r3, #0
    1060:	82033001 	andhi	r3, r3, #1
    1064:	e3530000 	cmp	r3, #0
    1068:	1a00005f 	bne	11ec <zlib_inflate_table+0x574>
    106c:	e59d6014 	ldr	r6, [sp, #20]
    1070:	e1a03105 	lsl	r3, r5, #2
    1074:	e58d5020 	str	r5, [sp, #32]
    1078:	e59d4004 	ldr	r4, [sp, #4]
    107c:	e5962000 	ldr	r2, [r6]
    1080:	e59d700c 	ldr	r7, [sp, #12]
    1084:	e7c2c105 	strb	ip, [r2, r5, lsl #2]
    1088:	e0877104 	add	r7, r7, r4, lsl #2
    108c:	e5962000 	ldr	r2, [r6]
    1090:	e59d5010 	ldr	r5, [sp, #16]
    1094:	e0822003 	add	r2, r2, r3
    1098:	e58d700c 	str	r7, [sp, #12]
    109c:	e5c25001 	strb	r5, [r2, #1]
    10a0:	e5962000 	ldr	r2, [r6]
    10a4:	e0823003 	add	r3, r2, r3
    10a8:	e0622007 	rsb	r2, r2, r7
    10ac:	e1a02142 	asr	r2, r2, #2
    10b0:	e1c320b2 	strh	r2, [r3, #2]
    10b4:	eaffff83 	b	ec8 <zlib_inflate_table+0x250>
    10b8:	e3e00000 	mvn	r0, #0
    10bc:	eaffff20 	b	d44 <zlib_inflate_table+0xcc>
    10c0:	e1550004 	cmp	r5, r4
    10c4:	31a04005 	movcc	r4, r5
    10c8:	e1540009 	cmp	r4, r9
    10cc:	31a04009 	movcc	r4, r9
    10d0:	e58d4010 	str	r4, [sp, #16]
    10d4:	eaffff28 	b	d7c <zlib_inflate_table+0x104>
    10d8:	e3a03013 	mov	r3, #19
    10dc:	e58d7034 	str	r7, [sp, #52]	; 0x34
    10e0:	e58d7030 	str	r7, [sp, #48]	; 0x30
    10e4:	e58d301c 	str	r3, [sp, #28]
    10e8:	eaffff5a 	b	e58 <zlib_inflate_table+0x1e0>
    10ec:	e06a1009 	rsb	r1, sl, r9
    10f0:	eaffff74 	b	ec8 <zlib_inflate_table+0x250>
    10f4:	e3500000 	cmp	r0, #0
    10f8:	0a00001f 	beq	117c <zlib_inflate_table+0x504>
    10fc:	e59d7010 	ldr	r7, [sp, #16]
    1100:	e3a05040 	mov	r5, #64	; 0x40
    1104:	e59d900c 	ldr	r9, [sp, #12]
    1108:	e6ef8077 	uxtb	r8, r7
    110c:	e3a07001 	mov	r7, #1
    1110:	e35a0000 	cmp	sl, #0
    1114:	0a000022 	beq	11a4 <zlib_inflate_table+0x52c>
    1118:	e59dc028 	ldr	ip, [sp, #40]	; 0x28
    111c:	e59d4020 	ldr	r4, [sp, #32]
    1120:	e000100c 	and	r1, r0, ip
    1124:	e1510004 	cmp	r1, r4
    1128:	0a00001d 	beq	11a4 <zlib_inflate_table+0x52c>
    112c:	e59d6014 	ldr	r6, [sp, #20]
    1130:	e3a0a000 	mov	sl, #0
    1134:	e59dc010 	ldr	ip, [sp, #16]
    1138:	e1a0400a 	mov	r4, sl
    113c:	e24c2001 	sub	r2, ip, #1
    1140:	e5969000 	ldr	r9, [r6]
    1144:	e1a06008 	mov	r6, r8
    1148:	e1a04430 	lsr	r4, r0, r4
    114c:	e1a01217 	lsl	r1, r7, r2
    1150:	e1110000 	tst	r1, r0
    1154:	e089c104 	add	ip, r9, r4, lsl #2
    1158:	e7c95104 	strb	r5, [r9, r4, lsl #2]
    115c:	e5cc6001 	strb	r6, [ip, #1]
    1160:	e1cc30b2 	strh	r3, [ip, #2]
    1164:	0a000002 	beq	1174 <zlib_inflate_table+0x4fc>
    1168:	e1a010a1 	lsr	r1, r1, #1
    116c:	e1110000 	tst	r1, r0
    1170:	1afffffc 	bne	1168 <zlib_inflate_table+0x4f0>
    1174:	e3510000 	cmp	r1, #0
    1178:	1a00000b 	bne	11ac <zlib_inflate_table+0x534>
    117c:	e59d1014 	ldr	r1, [sp, #20]
    1180:	e3a00000 	mov	r0, #0
    1184:	e59d2018 	ldr	r2, [sp, #24]
    1188:	e59d4098 	ldr	r4, [sp, #152]	; 0x98
    118c:	e5913000 	ldr	r3, [r1]
    1190:	e0833102 	add	r3, r3, r2, lsl #2
    1194:	e5813000 	str	r3, [r1]
    1198:	e59d3010 	ldr	r3, [sp, #16]
    119c:	e5843000 	str	r3, [r4]
    11a0:	eafffee7 	b	d44 <zlib_inflate_table+0xcc>
    11a4:	e1a0400a 	mov	r4, sl
    11a8:	eaffffe6 	b	1148 <zlib_inflate_table+0x4d0>
    11ac:	e241c001 	sub	ip, r1, #1
    11b0:	e00c0000 	and	r0, ip, r0
    11b4:	e0900001 	adds	r0, r0, r1
    11b8:	1affffd4 	bne	1110 <zlib_inflate_table+0x498>
    11bc:	eaffffee 	b	117c <zlib_inflate_table+0x504>
    11c0:	e59f3030 	ldr	r3, [pc, #48]	; 11f8 <zlib_inflate_table+0x580>
    11c4:	e3a0cc01 	mov	ip, #256	; 0x100
    11c8:	e58dc01c 	str	ip, [sp, #28]
    11cc:	e08f3003 	add	r3, pc, r3
    11d0:	e2432c02 	sub	r2, r3, #512	; 0x200
    11d4:	e2433d07 	sub	r3, r3, #448	; 0x1c0
    11d8:	e2422002 	sub	r2, r2, #2
    11dc:	e2433002 	sub	r3, r3, #2
    11e0:	e58d2034 	str	r2, [sp, #52]	; 0x34
    11e4:	e58d3030 	str	r3, [sp, #48]	; 0x30
    11e8:	eaffff1a 	b	e58 <zlib_inflate_table+0x1e0>
    11ec:	e3a00001 	mov	r0, #1
    11f0:	eafffed3 	b	d44 <zlib_inflate_table+0xcc>
    11f4:	00004d08 	.word	0x00004d08
    11f8:	00004980 	.word	0x00004980

000011fc <inflate_fast>:
    11fc:	e92d0ff0 	push	{r4, r5, r6, r7, r8, r9, sl, fp}
    1200:	e24dd048 	sub	sp, sp, #72	; 0x48
    1204:	e590201c 	ldr	r2, [r0, #28]
    1208:	e3a08001 	mov	r8, #1
    120c:	e5905010 	ldr	r5, [r0, #16]
    1210:	e1a03008 	mov	r3, r8
    1214:	e8900050 	ldm	r0, {r4, r6}
    1218:	e2457c01 	sub	r7, r5, #256	; 0x100
    121c:	e0611005 	rsb	r1, r1, r5
    1220:	e592502c 	ldr	r5, [r2, #44]	; 0x2c
    1224:	e2444001 	sub	r4, r4, #1
    1228:	e592b024 	ldr	fp, [r2, #36]	; 0x24
    122c:	e2466005 	sub	r6, r6, #5
    1230:	e590c00c 	ldr	ip, [r0, #12]
    1234:	e0846006 	add	r6, r4, r6
    1238:	e58d5010 	str	r5, [sp, #16]
    123c:	e2477001 	sub	r7, r7, #1
    1240:	e5925028 	ldr	r5, [r2, #40]	; 0x28
    1244:	e24cc001 	sub	ip, ip, #1
    1248:	e5929054 	ldr	r9, [r2, #84]	; 0x54
    124c:	e08c1001 	add	r1, ip, r1
    1250:	e592a050 	ldr	sl, [r2, #80]	; 0x50
    1254:	e08c7007 	add	r7, ip, r7
    1258:	e58db014 	str	fp, [sp, #20]
    125c:	e592b030 	ldr	fp, [r2, #48]	; 0x30
    1260:	e1a0aa18 	lsl	sl, r8, sl
    1264:	e58d5028 	str	r5, [sp, #40]	; 0x28
    1268:	e1a08918 	lsl	r8, r8, r9
    126c:	e58d6004 	str	r6, [sp, #4]
    1270:	e24aa001 	sub	sl, sl, #1
    1274:	e58d1024 	str	r1, [sp, #36]	; 0x24
    1278:	e2488001 	sub	r8, r8, #1
    127c:	e5925034 	ldr	r5, [r2, #52]	; 0x34
    1280:	e5926038 	ldr	r6, [r2, #56]	; 0x38
    1284:	e5921048 	ldr	r1, [r2, #72]	; 0x48
    1288:	e592904c 	ldr	r9, [r2, #76]	; 0x4c
    128c:	e58da00c 	str	sl, [sp, #12]
    1290:	e58d8020 	str	r8, [sp, #32]
    1294:	e59da014 	ldr	sl, [sp, #20]
    1298:	e59d8010 	ldr	r8, [sp, #16]
    129c:	e58db018 	str	fp, [sp, #24]
    12a0:	e58d7008 	str	r7, [sp, #8]
    12a4:	e24b7001 	sub	r7, fp, #1
    12a8:	e1a0b000 	mov	fp, r0
    12ac:	e088800a 	add	r8, r8, sl
    12b0:	e58d702c 	str	r7, [sp, #44]	; 0x2c
    12b4:	e58d8030 	str	r8, [sp, #48]	; 0x30
    12b8:	e58d201c 	str	r2, [sp, #28]
    12bc:	e356000e 	cmp	r6, #14
    12c0:	8a000007 	bhi	12e4 <inflate_fast+0xe8>
    12c4:	e5d47002 	ldrb	r7, [r4, #2]
    12c8:	e2860008 	add	r0, r6, #8
    12cc:	e5d42001 	ldrb	r2, [r4, #1]
    12d0:	e2844002 	add	r4, r4, #2
    12d4:	e1a00017 	lsl	r0, r7, r0
    12d8:	e0800612 	add	r0, r0, r2, lsl r6
    12dc:	e2866010 	add	r6, r6, #16
    12e0:	e0855000 	add	r5, r5, r0
    12e4:	e59d200c 	ldr	r2, [sp, #12]
    12e8:	e0050002 	and	r0, r5, r2
    12ec:	e0812100 	add	r2, r1, r0, lsl #2
    12f0:	e7d17100 	ldrb	r7, [r1, r0, lsl #2]
    12f4:	e5d20001 	ldrb	r0, [r2, #1]
    12f8:	e3570000 	cmp	r7, #0
    12fc:	e1d220b2 	ldrh	r2, [r2, #2]
    1300:	e1a05035 	lsr	r5, r5, r0
    1304:	e0606006 	rsb	r6, r0, r6
    1308:	1a00000e 	bne	1348 <inflate_fast+0x14c>
    130c:	ea00005c 	b	1484 <inflate_fast+0x288>
    1310:	e3170040 	tst	r7, #64	; 0x40
    1314:	1a000064 	bne	14ac <inflate_fast+0x2b0>
    1318:	e1a07713 	lsl	r7, r3, r7
    131c:	e2477001 	sub	r7, r7, #1
    1320:	e0077005 	and	r7, r7, r5
    1324:	e0872002 	add	r2, r7, r2
    1328:	e7d17102 	ldrb	r7, [r1, r2, lsl #2]
    132c:	e0812102 	add	r2, r1, r2, lsl #2
    1330:	e3570000 	cmp	r7, #0
    1334:	e5d20001 	ldrb	r0, [r2, #1]
    1338:	e1d220b2 	ldrh	r2, [r2, #2]
    133c:	e1a05035 	lsr	r5, r5, r0
    1340:	e0606006 	rsb	r6, r0, r6
    1344:	0a00004e 	beq	1484 <inflate_fast+0x288>
    1348:	e3170010 	tst	r7, #16
    134c:	0affffef 	beq	1310 <inflate_fast+0x114>
    1350:	e217700f 	ands	r7, r7, #15
    1354:	e1a00002 	mov	r0, r2
    1358:	0a00000a 	beq	1388 <inflate_fast+0x18c>
    135c:	e1570006 	cmp	r7, r6
    1360:	85d40001 	ldrbhi	r0, [r4, #1]
    1364:	82844001 	addhi	r4, r4, #1
    1368:	80855610 	addhi	r5, r5, r0, lsl r6
    136c:	e1a00713 	lsl	r0, r3, r7
    1370:	e2400001 	sub	r0, r0, #1
    1374:	82866008 	addhi	r6, r6, #8
    1378:	e0050000 	and	r0, r5, r0
    137c:	e0676006 	rsb	r6, r7, r6
    1380:	e1a05735 	lsr	r5, r5, r7
    1384:	e0820000 	add	r0, r2, r0
    1388:	e356000e 	cmp	r6, #14
    138c:	9a000052 	bls	14dc <inflate_fast+0x2e0>
    1390:	e59d7020 	ldr	r7, [sp, #32]
    1394:	e0052007 	and	r2, r5, r7
    1398:	e0897102 	add	r7, r9, r2, lsl #2
    139c:	e7d92102 	ldrb	r2, [r9, r2, lsl #2]
    13a0:	e5d7a001 	ldrb	sl, [r7, #1]
    13a4:	e3120010 	tst	r2, #16
    13a8:	e1d780b2 	ldrh	r8, [r7, #2]
    13ac:	e1a05a35 	lsr	r5, r5, sl
    13b0:	e06a6006 	rsb	r6, sl, r6
    13b4:	0a00000c 	beq	13ec <inflate_fast+0x1f0>
    13b8:	ea000050 	b	1500 <inflate_fast+0x304>
    13bc:	e1a02213 	lsl	r2, r3, r2
    13c0:	e2422001 	sub	r2, r2, #1
    13c4:	e0022005 	and	r2, r2, r5
    13c8:	e0828008 	add	r8, r2, r8
    13cc:	e089a108 	add	sl, r9, r8, lsl #2
    13d0:	e7d92108 	ldrb	r2, [r9, r8, lsl #2]
    13d4:	e5da7001 	ldrb	r7, [sl, #1]
    13d8:	e3120010 	tst	r2, #16
    13dc:	e1da80b2 	ldrh	r8, [sl, #2]
    13e0:	e1a05735 	lsr	r5, r5, r7
    13e4:	e0676006 	rsb	r6, r7, r6
    13e8:	1a000044 	bne	1500 <inflate_fast+0x304>
    13ec:	e3120040 	tst	r2, #64	; 0x40
    13f0:	0afffff1 	beq	13bc <inflate_fast+0x1c0>
    13f4:	e59d201c 	ldr	r2, [sp, #28]
    13f8:	e1a0000b 	mov	r0, fp
    13fc:	e59f3488 	ldr	r3, [pc, #1160]	; 188c <inflate_fast+0x690>
    1400:	e08f3003 	add	r3, pc, r3
    1404:	e58b3018 	str	r3, [fp, #24]
    1408:	e3a0301b 	mov	r3, #27
    140c:	e5823000 	str	r3, [r2]
    1410:	e1a031a6 	lsr	r3, r6, #3
    1414:	e59da004 	ldr	sl, [sp, #4]
    1418:	e0634004 	rsb	r4, r3, r4
    141c:	e28c1001 	add	r1, ip, #1
    1420:	e15a0004 	cmp	sl, r4
    1424:	e0466183 	sub	r6, r6, r3, lsl #3
    1428:	e2843001 	add	r3, r4, #1
    142c:	e5803000 	str	r3, [r0]
    1430:	959db004 	ldrls	fp, [sp, #4]
    1434:	8064400a 	rsbhi	r4, r4, sl
    1438:	e59d3008 	ldr	r3, [sp, #8]
    143c:	9064400b 	rsbls	r4, r4, fp
    1440:	e580100c 	str	r1, [r0, #12]
    1444:	e15c0003 	cmp	ip, r3
    1448:	e3e01000 	mvn	r1, #0
    144c:	306cc003 	rsbcc	ip, ip, r3
    1450:	e1c55611 	bic	r5, r5, r1, lsl r6
    1454:	259d7008 	ldrcs	r7, [sp, #8]
    1458:	e2844005 	add	r4, r4, #5
    145c:	e5804004 	str	r4, [r0, #4]
    1460:	206cc007 	rsbcs	ip, ip, r7
    1464:	e28ccc01 	add	ip, ip, #256	; 0x100
    1468:	e28cc001 	add	ip, ip, #1
    146c:	e580c010 	str	ip, [r0, #16]
    1470:	e5825034 	str	r5, [r2, #52]	; 0x34
    1474:	e5826038 	str	r6, [r2, #56]	; 0x38
    1478:	e28dd048 	add	sp, sp, #72	; 0x48
    147c:	e8bd0ff0 	pop	{r4, r5, r6, r7, r8, r9, sl, fp}
    1480:	e12fff1e 	bx	lr
    1484:	e5cc2001 	strb	r2, [ip, #1]
    1488:	e28cc001 	add	ip, ip, #1
    148c:	e59d7008 	ldr	r7, [sp, #8]
    1490:	e59d8004 	ldr	r8, [sp, #4]
    1494:	e15c0007 	cmp	ip, r7
    1498:	31540008 	cmpcc	r4, r8
    149c:	3affff86 	bcc	12bc <inflate_fast+0xc0>
    14a0:	e59d201c 	ldr	r2, [sp, #28]
    14a4:	e1a0000b 	mov	r0, fp
    14a8:	eaffffd8 	b	1410 <inflate_fast+0x214>
    14ac:	e59d201c 	ldr	r2, [sp, #28]
    14b0:	e3170020 	tst	r7, #32
    14b4:	e1a0000b 	mov	r0, fp
    14b8:	13a0300b 	movne	r3, #11
    14bc:	15823000 	strne	r3, [r2]
    14c0:	1affffd2 	bne	1410 <inflate_fast+0x214>
    14c4:	e59f33c4 	ldr	r3, [pc, #964]	; 1890 <inflate_fast+0x694>
    14c8:	e08f3003 	add	r3, pc, r3
    14cc:	e58b3018 	str	r3, [fp, #24]
    14d0:	e3a0301b 	mov	r3, #27
    14d4:	e5823000 	str	r3, [r2]
    14d8:	eaffffcc 	b	1410 <inflate_fast+0x214>
    14dc:	e5d47002 	ldrb	r7, [r4, #2]
    14e0:	e2862008 	add	r2, r6, #8
    14e4:	e5d48001 	ldrb	r8, [r4, #1]
    14e8:	e2844002 	add	r4, r4, #2
    14ec:	e1a02217 	lsl	r2, r7, r2
    14f0:	e0822618 	add	r2, r2, r8, lsl r6
    14f4:	e2866010 	add	r6, r6, #16
    14f8:	e0855002 	add	r5, r5, r2
    14fc:	eaffffa3 	b	1390 <inflate_fast+0x194>
    1500:	e202a00f 	and	sl, r2, #15
    1504:	e15a0006 	cmp	sl, r6
    1508:	9a000009 	bls	1534 <inflate_fast+0x338>
    150c:	e5d47001 	ldrb	r7, [r4, #1]
    1510:	e2862008 	add	r2, r6, #8
    1514:	e15a0002 	cmp	sl, r2
    1518:	92844001 	addls	r4, r4, #1
    151c:	e0855617 	add	r5, r5, r7, lsl r6
    1520:	85d47002 	ldrbhi	r7, [r4, #2]
    1524:	82866010 	addhi	r6, r6, #16
    1528:	82844002 	addhi	r4, r4, #2
    152c:	91a06002 	movls	r6, r2
    1530:	80855217 	addhi	r5, r5, r7, lsl r2
    1534:	e1a02a13 	lsl	r2, r3, sl
    1538:	e58d2034 	str	r2, [sp, #52]	; 0x34
    153c:	e59d2024 	ldr	r2, [sp, #36]	; 0x24
    1540:	e06a6006 	rsb	r6, sl, r6
    1544:	e062700c 	rsb	r7, r2, ip
    1548:	e59d2034 	ldr	r2, [sp, #52]	; 0x34
    154c:	e2422001 	sub	r2, r2, #1
    1550:	e0052002 	and	r2, r5, r2
    1554:	e58d2034 	str	r2, [sp, #52]	; 0x34
    1558:	e0822008 	add	r2, r2, r8
    155c:	e1a05a35 	lsr	r5, r5, sl
    1560:	e1520007 	cmp	r2, r7
    1564:	9a00002d 	bls	1620 <inflate_fast+0x424>
    1568:	e0678002 	rsb	r8, r7, r2
    156c:	e59d7028 	ldr	r7, [sp, #40]	; 0x28
    1570:	e1570008 	cmp	r7, r8
    1574:	3a0000bc 	bcc	186c <inflate_fast+0x670>
    1578:	e59da010 	ldr	sl, [sp, #16]
    157c:	e35a0000 	cmp	sl, #0
    1580:	1a000064 	bne	1718 <inflate_fast+0x51c>
    1584:	e59da014 	ldr	sl, [sp, #20]
    1588:	e1500008 	cmp	r0, r8
    158c:	e068700a 	rsb	r7, r8, sl
    1590:	e59da02c 	ldr	sl, [sp, #44]	; 0x2c
    1594:	e08a7007 	add	r7, sl, r7
    1598:	8a0000a6 	bhi	1838 <inflate_fast+0x63c>
    159c:	e3500002 	cmp	r0, #2
    15a0:	9a000014 	bls	15f8 <inflate_fast+0x3fc>
    15a4:	e2878003 	add	r8, r7, #3
    15a8:	e1a0200c 	mov	r2, ip
    15ac:	e06c8008 	rsb	r8, ip, r8
    15b0:	e58d4034 	str	r4, [sp, #52]	; 0x34
    15b4:	e58d1038 	str	r1, [sp, #56]	; 0x38
    15b8:	e5d7c001 	ldrb	ip, [r7, #1]
    15bc:	e2400003 	sub	r0, r0, #3
    15c0:	e2821003 	add	r1, r2, #3
    15c4:	e3500002 	cmp	r0, #2
    15c8:	e088a002 	add	sl, r8, r2
    15cc:	e5c2c001 	strb	ip, [r2, #1]
    15d0:	e1a0c001 	mov	ip, r1
    15d4:	e5d74002 	ldrb	r4, [r7, #2]
    15d8:	e5c24002 	strb	r4, [r2, #2]
    15dc:	e5f74003 	ldrb	r4, [r7, #3]!
    15e0:	e5c24003 	strb	r4, [r2, #3]
    15e4:	e1a02001 	mov	r2, r1
    15e8:	8afffff2 	bhi	15b8 <inflate_fast+0x3bc>
    15ec:	e59d4034 	ldr	r4, [sp, #52]	; 0x34
    15f0:	e1a0700a 	mov	r7, sl
    15f4:	e59d1038 	ldr	r1, [sp, #56]	; 0x38
    15f8:	e3500000 	cmp	r0, #0
    15fc:	0affffa2 	beq	148c <inflate_fast+0x290>
    1600:	e5d72001 	ldrb	r2, [r7, #1]
    1604:	e3500002 	cmp	r0, #2
    1608:	e5cc2001 	strb	r2, [ip, #1]
    160c:	1a000030 	bne	16d4 <inflate_fast+0x4d8>
    1610:	e5d72002 	ldrb	r2, [r7, #2]
    1614:	e5cc2002 	strb	r2, [ip, #2]
    1618:	e28cc002 	add	ip, ip, #2
    161c:	eaffff9a 	b	148c <inflate_fast+0x290>
    1620:	e31c0001 	tst	ip, #1
    1624:	e062800c 	rsb	r8, r2, ip
    1628:	02400001 	subeq	r0, r0, #1
    162c:	05d87001 	ldrbeq	r7, [r8, #1]
    1630:	02888001 	addeq	r8, r8, #1
    1634:	05cc7001 	strbeq	r7, [ip, #1]
    1638:	028cc001 	addeq	ip, ip, #1
    163c:	e3520002 	cmp	r2, #2
    1640:	e24c7001 	sub	r7, ip, #1
    1644:	e58d7034 	str	r7, [sp, #52]	; 0x34
    1648:	9a000023 	bls	16dc <inflate_fast+0x4e0>
    164c:	e2488001 	sub	r8, r8, #1
    1650:	e58d8038 	str	r8, [sp, #56]	; 0x38
    1654:	e1a080a0 	lsr	r8, r0, #1
    1658:	e58d803c 	str	r8, [sp, #60]	; 0x3c
    165c:	e59d2038 	ldr	r2, [sp, #56]	; 0x38
    1660:	e1a08007 	mov	r8, r7
    1664:	e59da03c 	ldr	sl, [sp, #60]	; 0x3c
    1668:	e1a07000 	mov	r7, r0
    166c:	e1dd04b6 	ldrh	r0, [sp, #70]	; 0x46
    1670:	e58d4040 	str	r4, [sp, #64]	; 0x40
    1674:	e5d24002 	ldrb	r4, [r2, #2]
    1678:	e25aa001 	subs	sl, sl, #1
    167c:	e5d2c003 	ldrb	ip, [r2, #3]
    1680:	e2822002 	add	r2, r2, #2
    1684:	e7c70014 	bfi	r0, r4, #0, #8
    1688:	e7cf041c 	bfi	r0, ip, #8, #8
    168c:	e1e800b2 	strh	r0, [r8, #2]!
    1690:	1afffff7 	bne	1674 <inflate_fast+0x478>
    1694:	e59da03c 	ldr	sl, [sp, #60]	; 0x3c
    1698:	e59d8038 	ldr	r8, [sp, #56]	; 0x38
    169c:	e24a2106 	sub	r2, sl, #-2147483647	; 0x80000001
    16a0:	e1cd04b6 	strh	r0, [sp, #70]	; 0x46
    16a4:	e1a00007 	mov	r0, r7
    16a8:	e59d7034 	ldr	r7, [sp, #52]	; 0x34
    16ac:	e1a02082 	lsl	r2, r2, #1
    16b0:	e59d4040 	ldr	r4, [sp, #64]	; 0x40
    16b4:	e087c002 	add	ip, r7, r2
    16b8:	e0882002 	add	r2, r8, r2
    16bc:	e28cc003 	add	ip, ip, #3
    16c0:	e2828003 	add	r8, r2, #3
    16c4:	e3100001 	tst	r0, #1
    16c8:	0affff6f 	beq	148c <inflate_fast+0x290>
    16cc:	e5d82001 	ldrb	r2, [r8, #1]
    16d0:	e5cc2001 	strb	r2, [ip, #1]
    16d4:	e28cc001 	add	ip, ip, #1
    16d8:	eaffff6b 	b	148c <inflate_fast+0x290>
    16dc:	e15c70b1 	ldrh	r7, [ip, #-1]
    16e0:	e3520001 	cmp	r2, #1
    16e4:	e1a0a0a0 	lsr	sl, r0, #1
    16e8:	e59dc034 	ldr	ip, [sp, #52]	; 0x34
    16ec:	01a02427 	lsreq	r2, r7, #8
    16f0:	07c77012 	bfieq	r7, r2, #0, #8
    16f4:	e1a0200a 	mov	r2, sl
    16f8:	06ff7077 	uxtheq	r7, r7
    16fc:	e2522001 	subs	r2, r2, #1
    1700:	e1ec70b2 	strh	r7, [ip, #2]!
    1704:	1afffffc 	bne	16fc <inflate_fast+0x500>
    1708:	e59d2034 	ldr	r2, [sp, #52]	; 0x34
    170c:	e082c08a 	add	ip, r2, sl, lsl #1
    1710:	e28cc001 	add	ip, ip, #1
    1714:	eaffffea 	b	16c4 <inflate_fast+0x4c8>
    1718:	e59d7010 	ldr	r7, [sp, #16]
    171c:	e1570008 	cmp	r7, r8
    1720:	2a00002c 	bcs	17d8 <inflate_fast+0x5dc>
    1724:	e067a008 	rsb	sl, r7, r8
    1728:	e58da034 	str	sl, [sp, #52]	; 0x34
    172c:	e59da030 	ldr	sl, [sp, #48]	; 0x30
    1730:	e068700a 	rsb	r7, r8, sl
    1734:	e59d8034 	ldr	r8, [sp, #52]	; 0x34
    1738:	e59da02c 	ldr	sl, [sp, #44]	; 0x2c
    173c:	e1500008 	cmp	r0, r8
    1740:	e08a7007 	add	r7, sl, r7
    1744:	9affff94 	bls	159c <inflate_fast+0x3a0>
    1748:	e0680000 	rsb	r0, r8, r0
    174c:	e1a08007 	mov	r8, r7
    1750:	e59d7034 	ldr	r7, [sp, #52]	; 0x34
    1754:	e1a0a00c 	mov	sl, ip
    1758:	e58d403c 	str	r4, [sp, #60]	; 0x3c
    175c:	e58d7038 	str	r7, [sp, #56]	; 0x38
    1760:	e1a0700c 	mov	r7, ip
    1764:	e59dc038 	ldr	ip, [sp, #56]	; 0x38
    1768:	e5f84001 	ldrb	r4, [r8, #1]!
    176c:	e25cc001 	subs	ip, ip, #1
    1770:	e5ea4001 	strb	r4, [sl, #1]!
    1774:	1afffffb 	bne	1768 <inflate_fast+0x56c>
    1778:	e59d8010 	ldr	r8, [sp, #16]
    177c:	e59da034 	ldr	sl, [sp, #52]	; 0x34
    1780:	e1580000 	cmp	r8, r0
    1784:	e59d403c 	ldr	r4, [sp, #60]	; 0x3c
    1788:	e087c00a 	add	ip, r7, sl
    178c:	259d702c 	ldrcs	r7, [sp, #44]	; 0x2c
    1790:	2affff81 	bcs	159c <inflate_fast+0x3a0>
    1794:	e59d7010 	ldr	r7, [sp, #16]
    1798:	e0680000 	rsb	r0, r8, r0
    179c:	e59da018 	ldr	sl, [sp, #24]
    17a0:	e1a0800c 	mov	r8, ip
    17a4:	e58d4038 	str	r4, [sp, #56]	; 0x38
    17a8:	e58d7034 	str	r7, [sp, #52]	; 0x34
    17ac:	e1a0700c 	mov	r7, ip
    17b0:	e59dc034 	ldr	ip, [sp, #52]	; 0x34
    17b4:	e4da4001 	ldrb	r4, [sl], #1
    17b8:	e25cc001 	subs	ip, ip, #1
    17bc:	e5e84001 	strb	r4, [r8, #1]!
    17c0:	1afffffb 	bne	17b4 <inflate_fast+0x5b8>
    17c4:	e59d8010 	ldr	r8, [sp, #16]
    17c8:	e59d4038 	ldr	r4, [sp, #56]	; 0x38
    17cc:	e087c008 	add	ip, r7, r8
    17d0:	e062700c 	rsb	r7, r2, ip
    17d4:	eaffff70 	b	159c <inflate_fast+0x3a0>
    17d8:	e59da010 	ldr	sl, [sp, #16]
    17dc:	e1500008 	cmp	r0, r8
    17e0:	e068700a 	rsb	r7, r8, sl
    17e4:	e59da02c 	ldr	sl, [sp, #44]	; 0x2c
    17e8:	e08a7007 	add	r7, sl, r7
    17ec:	9affff6a 	bls	159c <inflate_fast+0x3a0>
    17f0:	e0680000 	rsb	r0, r8, r0
    17f4:	e1a0a007 	mov	sl, r7
    17f8:	e58dc034 	str	ip, [sp, #52]	; 0x34
    17fc:	e1a07000 	mov	r7, r0
    1800:	e1a00008 	mov	r0, r8
    1804:	e58d8038 	str	r8, [sp, #56]	; 0x38
    1808:	e58d403c 	str	r4, [sp, #60]	; 0x3c
    180c:	e58dc040 	str	ip, [sp, #64]	; 0x40
    1810:	e5fa4001 	ldrb	r4, [sl, #1]!
    1814:	e2500001 	subs	r0, r0, #1
    1818:	e5ec4001 	strb	r4, [ip, #1]!
    181c:	1afffffb 	bne	1810 <inflate_fast+0x614>
    1820:	e59dc040 	ldr	ip, [sp, #64]	; 0x40
    1824:	e1a00007 	mov	r0, r7
    1828:	e59d403c 	ldr	r4, [sp, #60]	; 0x3c
    182c:	e08cc008 	add	ip, ip, r8
    1830:	e062700c 	rsb	r7, r2, ip
    1834:	eaffff58 	b	159c <inflate_fast+0x3a0>
    1838:	e0680000 	rsb	r0, r8, r0
    183c:	e1a0a007 	mov	sl, r7
    1840:	e58dc038 	str	ip, [sp, #56]	; 0x38
    1844:	e1a07000 	mov	r7, r0
    1848:	e1a00008 	mov	r0, r8
    184c:	e58d8034 	str	r8, [sp, #52]	; 0x34
    1850:	e58d403c 	str	r4, [sp, #60]	; 0x3c
    1854:	e58dc040 	str	ip, [sp, #64]	; 0x40
    1858:	e5fa4001 	ldrb	r4, [sl, #1]!
    185c:	e2500001 	subs	r0, r0, #1
    1860:	e5ec4001 	strb	r4, [ip, #1]!
    1864:	1afffffb 	bne	1858 <inflate_fast+0x65c>
    1868:	eaffffec 	b	1820 <inflate_fast+0x624>
    186c:	e59d201c 	ldr	r2, [sp, #28]
    1870:	e1a0000b 	mov	r0, fp
    1874:	e59f3018 	ldr	r3, [pc, #24]	; 1894 <inflate_fast+0x698>
    1878:	e08f3003 	add	r3, pc, r3
    187c:	e58b3018 	str	r3, [fp, #24]
    1880:	e3a0301b 	mov	r3, #27
    1884:	e5823000 	str	r3, [r2]
    1888:	eafffee0 	b	1410 <inflate_fast+0x214>
    188c:	0000519c 	.word	0x0000519c
    1890:	000050ec 	.word	0x000050ec
    1894:	00004d04 	.word	0x00004d04

00001898 <zlib_inflate_workspacesize>:
    1898:	e30a052c 	movw	r0, #42284	; 0xa52c
    189c:	e12fff1e 	bx	lr

000018a0 <zlib_inflateReset>:
    18a0:	e2501000 	subs	r1, r0, #0
    18a4:	e52d4004 	push	{r4}		; (str r4, [sp, #-4]!)
    18a8:	0a00001d 	beq	1924 <zlib_inflateReset+0x84>
    18ac:	e591301c 	ldr	r3, [r1, #28]
    18b0:	e3530000 	cmp	r3, #0
    18b4:	0a00001a 	beq	1924 <zlib_inflateReset+0x84>
    18b8:	e3a02000 	mov	r2, #0
    18bc:	e3a04001 	mov	r4, #1
    18c0:	e583201c 	str	r2, [r3, #28]
    18c4:	e283ce52 	add	ip, r3, #1312	; 0x520
    18c8:	e5814028 	str	r4, [r1, #40]	; 0x28
    18cc:	e1a00002 	mov	r0, r2
    18d0:	e5812014 	str	r2, [r1, #20]
    18d4:	e28cc00c 	add	ip, ip, #12
    18d8:	e5812008 	str	r2, [r1, #8]
    18dc:	e5812018 	str	r2, [r1, #24]
    18e0:	e5931020 	ldr	r1, [r3, #32]
    18e4:	e5832000 	str	r2, [r3]
    18e8:	e1a04114 	lsl	r4, r4, r1
    18ec:	e5832004 	str	r2, [r3, #4]
    18f0:	e3a01902 	mov	r1, #32768	; 0x8000
    18f4:	e583200c 	str	r2, [r3, #12]
    18f8:	e5831014 	str	r1, [r3, #20]
    18fc:	e5832034 	str	r2, [r3, #52]	; 0x34
    1900:	e5832038 	str	r2, [r3, #56]	; 0x38
    1904:	e583c068 	str	ip, [r3, #104]	; 0x68
    1908:	e583c04c 	str	ip, [r3, #76]	; 0x4c
    190c:	e583c048 	str	ip, [r3, #72]	; 0x48
    1910:	e5834024 	str	r4, [r3, #36]	; 0x24
    1914:	e583202c 	str	r2, [r3, #44]	; 0x2c
    1918:	e5832028 	str	r2, [r3, #40]	; 0x28
    191c:	e8bd0010 	pop	{r4}
    1920:	e12fff1e 	bx	lr
    1924:	e3e00001 	mvn	r0, #1
    1928:	eafffffb 	b	191c <zlib_inflateReset+0x7c>

0000192c <zlib_inflateInit2>:
    192c:	e2503000 	subs	r3, r0, #0
    1930:	0a000013 	beq	1984 <zlib_inflateInit2+0x58>
    1934:	e5932020 	ldr	r2, [r3, #32]
    1938:	e3510000 	cmp	r1, #0
    193c:	e3a00000 	mov	r0, #0
    1940:	b2611000 	rsblt	r1, r1, #0
    1944:	e5830018 	str	r0, [r3, #24]
    1948:	a1a00241 	asrge	r0, r1, #4
    194c:	a2800001 	addge	r0, r0, #1
    1950:	e583201c 	str	r2, [r3, #28]
    1954:	b5820008 	strlt	r0, [r2, #8]
    1958:	a5820008 	strge	r0, [r2, #8]
    195c:	e2410008 	sub	r0, r1, #8
    1960:	e3500007 	cmp	r0, #7
    1964:	8a000006 	bhi	1984 <zlib_inflateInit2+0x58>
    1968:	e5821020 	str	r1, [r2, #32]
    196c:	e1a00003 	mov	r0, r3
    1970:	e5933020 	ldr	r3, [r3, #32]
    1974:	e2833c25 	add	r3, r3, #9472	; 0x2500
    1978:	e283302c 	add	r3, r3, #44	; 0x2c
    197c:	e5823030 	str	r3, [r2, #48]	; 0x30
    1980:	eaffffc6 	b	18a0 <zlib_inflateReset>
    1984:	e3e00001 	mvn	r0, #1
    1988:	e12fff1e 	bx	lr

0000198c <zlib_inflate>:
    198c:	e92d4ff0 	push	{r4, r5, r6, r7, r8, r9, sl, fp, lr}
    1990:	e2508000 	subs	r8, r0, #0
    1994:	e24dd054 	sub	sp, sp, #84	; 0x54
    1998:	e58d1020 	str	r1, [sp, #32]
    199c:	0a000164 	beq	1f34 <zlib_inflate+0x5a8>
    19a0:	e598701c 	ldr	r7, [r8, #28]
    19a4:	e3570000 	cmp	r7, #0
    19a8:	0a0004f8 	beq	2d90 <zlib_inflate+0x1404>
    19ac:	e598a000 	ldr	sl, [r8]
    19b0:	e35a0000 	cmp	sl, #0
    19b4:	0a000486 	beq	2bd4 <zlib_inflate+0x1248>
    19b8:	e5973000 	ldr	r3, [r7]
    19bc:	e59f2f8c 	ldr	r2, [pc, #3980]	; 2950 <zlib_inflate+0xfc4>
    19c0:	e353000b 	cmp	r3, #11
    19c4:	e5976034 	ldr	r6, [r7, #52]	; 0x34
    19c8:	e5974038 	ldr	r4, [r7, #56]	; 0x38
    19cc:	e08f2002 	add	r2, pc, r2
    19d0:	03a0300c 	moveq	r3, #12
    19d4:	05873000 	streq	r3, [r7]
    19d8:	e598c010 	ldr	ip, [r8, #16]
    19dc:	e2822d26 	add	r2, r2, #2432	; 0x980
    19e0:	0598a000 	ldreq	sl, [r8]
    19e4:	e58d2028 	str	r2, [sp, #40]	; 0x28
    19e8:	e58dc00c 	str	ip, [sp, #12]
    19ec:	e3a0c000 	mov	ip, #0
    19f0:	e58dc014 	str	ip, [sp, #20]
    19f4:	e598c004 	ldr	ip, [r8, #4]
    19f8:	e59db00c 	ldr	fp, [sp, #12]
    19fc:	e58d8010 	str	r8, [sp, #16]
    1a00:	e58dc018 	str	ip, [sp, #24]
    1a04:	e59fcf48 	ldr	ip, [pc, #3912]	; 2954 <zlib_inflate+0xfc8>
    1a08:	e59d5018 	ldr	r5, [sp, #24]
    1a0c:	e08fc00c 	add	ip, pc, ip
    1a10:	e58dc01c 	str	ip, [sp, #28]
    1a14:	e598c00c 	ldr	ip, [r8, #12]
    1a18:	e58dc024 	str	ip, [sp, #36]	; 0x24
    1a1c:	e59dc01c 	ldr	ip, [sp, #28]
    1a20:	e28ccc01 	add	ip, ip, #256	; 0x100
    1a24:	e58dc030 	str	ip, [sp, #48]	; 0x30
    1a28:	e59fcf28 	ldr	ip, [pc, #3880]	; 2958 <zlib_inflate+0xfcc>
    1a2c:	e08fc00c 	add	ip, pc, ip
    1a30:	e58dc02c 	str	ip, [sp, #44]	; 0x2c
    1a34:	e282c024 	add	ip, r2, #36	; 0x24
    1a38:	e58dc034 	str	ip, [sp, #52]	; 0x34
    1a3c:	e353001c 	cmp	r3, #28
    1a40:	908ff103 	addls	pc, pc, r3, lsl #2
    1a44:	ea00013a 	b	1f34 <zlib_inflate+0x5a8>
    1a48:	ea0001c0 	b	2150 <zlib_inflate+0x7c4>
    1a4c:	ea000138 	b	1f34 <zlib_inflate+0x5a8>
    1a50:	ea000137 	b	1f34 <zlib_inflate+0x5a8>
    1a54:	ea000136 	b	1f34 <zlib_inflate+0x5a8>
    1a58:	ea000135 	b	1f34 <zlib_inflate+0x5a8>
    1a5c:	ea000134 	b	1f34 <zlib_inflate+0x5a8>
    1a60:	ea000133 	b	1f34 <zlib_inflate+0x5a8>
    1a64:	ea000132 	b	1f34 <zlib_inflate+0x5a8>
    1a68:	ea000131 	b	1f34 <zlib_inflate+0x5a8>
    1a6c:	ea000012 	b	1abc <zlib_inflate+0x130>
    1a70:	ea00002e 	b	1b30 <zlib_inflate+0x1a4>
    1a74:	ea000036 	b	1b54 <zlib_inflate+0x1c8>
    1a78:	ea000038 	b	1b60 <zlib_inflate+0x1d4>
    1a7c:	ea000131 	b	1f48 <zlib_inflate+0x5bc>
    1a80:	ea000150 	b	1fc8 <zlib_inflate+0x63c>
    1a84:	ea00040f 	b	2ac8 <zlib_inflate+0x113c>
    1a88:	ea00016c 	b	2040 <zlib_inflate+0x6b4>
    1a8c:	ea000343 	b	27a0 <zlib_inflate+0xe14>
    1a90:	ea00039a 	b	2900 <zlib_inflate+0xf74>
    1a94:	ea00005f 	b	1c18 <zlib_inflate+0x28c>
    1a98:	ea000079 	b	1c84 <zlib_inflate+0x2f8>
    1a9c:	ea0000d6 	b	1dfc <zlib_inflate+0x470>
    1aa0:	ea0000f7 	b	1e84 <zlib_inflate+0x4f8>
    1aa4:	ea0001d1 	b	21f0 <zlib_inflate+0x864>
    1aa8:	ea0001de 	b	2228 <zlib_inflate+0x89c>
    1aac:	ea000120 	b	1f34 <zlib_inflate+0x5a8>
    1ab0:	ea000280 	b	24b8 <zlib_inflate+0xb2c>
    1ab4:	ea00038a 	b	28e4 <zlib_inflate+0xf58>
    1ab8:	ea00015d 	b	2034 <zlib_inflate+0x6a8>
    1abc:	e354001f 	cmp	r4, #31
    1ac0:	8a00000c 	bhi	1af8 <zlib_inflate+0x16c>
    1ac4:	e3550000 	cmp	r5, #0
    1ac8:	0a000436 	beq	2ba8 <zlib_inflate+0x121c>
    1acc:	e1a0300a 	mov	r3, sl
    1ad0:	ea000001 	b	1adc <zlib_inflate+0x150>
    1ad4:	e3550000 	cmp	r5, #0
    1ad8:	0a000432 	beq	2ba8 <zlib_inflate+0x121c>
    1adc:	e4d32001 	ldrb	r2, [r3], #1
    1ae0:	e2455001 	sub	r5, r5, #1
    1ae4:	e0866412 	add	r6, r6, r2, lsl r4
    1ae8:	e2844008 	add	r4, r4, #8
    1aec:	e354001f 	cmp	r4, #31
    1af0:	e1a0a003 	mov	sl, r3
    1af4:	9afffff6 	bls	1ad4 <zlib_inflate+0x148>
    1af8:	e1a01c26 	lsr	r1, r6, #24
    1afc:	e1a03426 	lsr	r3, r6, #8
    1b00:	e59d8010 	ldr	r8, [sp, #16]
    1b04:	e0811c06 	add	r1, r1, r6, lsl #24
    1b08:	e2062cff 	and	r2, r6, #65280	; 0xff00
    1b0c:	e2033cff 	and	r3, r3, #65280	; 0xff00
    1b10:	e3a06000 	mov	r6, #0
    1b14:	e0813003 	add	r3, r1, r3
    1b18:	e1a04006 	mov	r4, r6
    1b1c:	e0833402 	add	r3, r3, r2, lsl #8
    1b20:	e5873018 	str	r3, [r7, #24]
    1b24:	e5883028 	str	r3, [r8, #40]	; 0x28
    1b28:	e3a0300a 	mov	r3, #10
    1b2c:	e5873000 	str	r3, [r7]
    1b30:	e597300c 	ldr	r3, [r7, #12]
    1b34:	e3530000 	cmp	r3, #0
    1b38:	0a000505 	beq	2f54 <zlib_inflate+0x15c8>
    1b3c:	e59d8010 	ldr	r8, [sp, #16]
    1b40:	e3a03001 	mov	r3, #1
    1b44:	e5873018 	str	r3, [r7, #24]
    1b48:	e5883028 	str	r3, [r8, #40]	; 0x28
    1b4c:	e3a0300b 	mov	r3, #11
    1b50:	e5873000 	str	r3, [r7]
    1b54:	e59dc020 	ldr	ip, [sp, #32]
    1b58:	e35c0006 	cmp	ip, #6
    1b5c:	0a000456 	beq	2cbc <zlib_inflate+0x1330>
    1b60:	e5973004 	ldr	r3, [r7, #4]
    1b64:	e3530000 	cmp	r3, #0
    1b68:	1a000024 	bne	1c00 <zlib_inflate+0x274>
    1b6c:	e3540002 	cmp	r4, #2
    1b70:	8a000005 	bhi	1b8c <zlib_inflate+0x200>
    1b74:	e3550000 	cmp	r5, #0
    1b78:	0a000476 	beq	2d58 <zlib_inflate+0x13cc>
    1b7c:	e4da3001 	ldrb	r3, [sl], #1
    1b80:	e2455001 	sub	r5, r5, #1
    1b84:	e0866413 	add	r6, r6, r3, lsl r4
    1b88:	e2844008 	add	r4, r4, #8
    1b8c:	e1a020a6 	lsr	r2, r6, #1
    1b90:	e2066001 	and	r6, r6, #1
    1b94:	e2023003 	and	r3, r2, #3
    1b98:	e5876004 	str	r6, [r7, #4]
    1b9c:	e3530002 	cmp	r3, #2
    1ba0:	03a0300f 	moveq	r3, #15
    1ba4:	05873000 	streq	r3, [r7]
    1ba8:	0a000011 	beq	1bf4 <zlib_inflate+0x268>
    1bac:	e3530003 	cmp	r3, #3
    1bb0:	0a000439 	beq	2c9c <zlib_inflate+0x1310>
    1bb4:	e3530001 	cmp	r3, #1
    1bb8:	13a0300d 	movne	r3, #13
    1bbc:	15873000 	strne	r3, [r7]
    1bc0:	1a00000b 	bne	1bf4 <zlib_inflate+0x268>
    1bc4:	e59dc030 	ldr	ip, [sp, #48]	; 0x30
    1bc8:	e3a01012 	mov	r1, #18
    1bcc:	e59d801c 	ldr	r8, [sp, #28]
    1bd0:	e1a03001 	mov	r3, r1
    1bd4:	e5871000 	str	r1, [r7]
    1bd8:	e2880c09 	add	r0, r8, #2304	; 0x900
    1bdc:	e587c048 	str	ip, [r7, #72]	; 0x48
    1be0:	e587004c 	str	r0, [r7, #76]	; 0x4c
    1be4:	e3a0c009 	mov	ip, #9
    1be8:	e3a00005 	mov	r0, #5
    1bec:	e587c050 	str	ip, [r7, #80]	; 0x50
    1bf0:	e5870054 	str	r0, [r7, #84]	; 0x54
    1bf4:	e1a06122 	lsr	r6, r2, #2
    1bf8:	e2444003 	sub	r4, r4, #3
    1bfc:	eaffff8e 	b	1a3c <zlib_inflate+0xb0>
    1c00:	e2042007 	and	r2, r4, #7
    1c04:	e3a03018 	mov	r3, #24
    1c08:	e1a06236 	lsr	r6, r6, r2
    1c0c:	e3c44007 	bic	r4, r4, #7
    1c10:	e5873000 	str	r3, [r7]
    1c14:	eaffff88 	b	1a3c <zlib_inflate+0xb0>
    1c18:	e597c044 	ldr	ip, [r7, #68]	; 0x44
    1c1c:	e35c0000 	cmp	ip, #0
    1c20:	0a000015 	beq	1c7c <zlib_inflate+0x2f0>
    1c24:	e154000c 	cmp	r4, ip
    1c28:	2a00000c 	bcs	1c60 <zlib_inflate+0x2d4>
    1c2c:	e3550000 	cmp	r5, #0
    1c30:	0a000448 	beq	2d58 <zlib_inflate+0x13cc>
    1c34:	e1a0300a 	mov	r3, sl
    1c38:	ea000001 	b	1c44 <zlib_inflate+0x2b8>
    1c3c:	e3550000 	cmp	r5, #0
    1c40:	0a0003d8 	beq	2ba8 <zlib_inflate+0x121c>
    1c44:	e4d32001 	ldrb	r2, [r3], #1
    1c48:	e2455001 	sub	r5, r5, #1
    1c4c:	e0866412 	add	r6, r6, r2, lsl r4
    1c50:	e2844008 	add	r4, r4, #8
    1c54:	e154000c 	cmp	r4, ip
    1c58:	e1a0a003 	mov	sl, r3
    1c5c:	3afffff6 	bcc	1c3c <zlib_inflate+0x2b0>
    1c60:	e3e03000 	mvn	r3, #0
    1c64:	e597203c 	ldr	r2, [r7, #60]	; 0x3c
    1c68:	e1c63c13 	bic	r3, r6, r3, lsl ip
    1c6c:	e06c4004 	rsb	r4, ip, r4
    1c70:	e1a06c36 	lsr	r6, r6, ip
    1c74:	e0823003 	add	r3, r2, r3
    1c78:	e587303c 	str	r3, [r7, #60]	; 0x3c
    1c7c:	e3a03014 	mov	r3, #20
    1c80:	e5873000 	str	r3, [r7]
    1c84:	e5973054 	ldr	r3, [r7, #84]	; 0x54
    1c88:	e3e08000 	mvn	r8, #0
    1c8c:	e597104c 	ldr	r1, [r7, #76]	; 0x4c
    1c90:	e1e08318 	mvn	r8, r8, lsl r3
    1c94:	e0063008 	and	r3, r6, r8
    1c98:	e0812103 	add	r2, r1, r3, lsl #2
    1c9c:	e7d10103 	ldrb	r0, [r1, r3, lsl #2]
    1ca0:	e5d23001 	ldrb	r3, [r2, #1]
    1ca4:	e1d2c0b2 	ldrh	ip, [r2, #2]
    1ca8:	e1540003 	cmp	r4, r3
    1cac:	e1a09003 	mov	r9, r3
    1cb0:	2a000012 	bcs	1d00 <zlib_inflate+0x374>
    1cb4:	e3550000 	cmp	r5, #0
    1cb8:	0a0003ba 	beq	2ba8 <zlib_inflate+0x121c>
    1cbc:	e1a0200a 	mov	r2, sl
    1cc0:	ea000001 	b	1ccc <zlib_inflate+0x340>
    1cc4:	e3550000 	cmp	r5, #0
    1cc8:	0a0003b6 	beq	2ba8 <zlib_inflate+0x121c>
    1ccc:	e4d23001 	ldrb	r3, [r2], #1
    1cd0:	e2455001 	sub	r5, r5, #1
    1cd4:	e0866413 	add	r6, r6, r3, lsl r4
    1cd8:	e2844008 	add	r4, r4, #8
    1cdc:	e0063008 	and	r3, r6, r8
    1ce0:	e1a0a002 	mov	sl, r2
    1ce4:	e081c103 	add	ip, r1, r3, lsl #2
    1ce8:	e7d10103 	ldrb	r0, [r1, r3, lsl #2]
    1cec:	e5dc3001 	ldrb	r3, [ip, #1]
    1cf0:	e1dcc0b2 	ldrh	ip, [ip, #2]
    1cf4:	e1530004 	cmp	r3, r4
    1cf8:	e1a09003 	mov	r9, r3
    1cfc:	8afffff0 	bhi	1cc4 <zlib_inflate+0x338>
    1d00:	e31000f0 	tst	r0, #240	; 0xf0
    1d04:	1a000030 	bne	1dcc <zlib_inflate+0x440>
    1d08:	e0800003 	add	r0, r0, r3
    1d0c:	e58d3038 	str	r3, [sp, #56]	; 0x38
    1d10:	e3e03000 	mvn	r3, #0
    1d14:	e59d8038 	ldr	r8, [sp, #56]	; 0x38
    1d18:	e1e03013 	mvn	r3, r3, lsl r0
    1d1c:	e59d0038 	ldr	r0, [sp, #56]	; 0x38
    1d20:	e58d3040 	str	r3, [sp, #64]	; 0x40
    1d24:	e0033006 	and	r3, r3, r6
    1d28:	e58dc03c 	str	ip, [sp, #60]	; 0x3c
    1d2c:	e08c3033 	add	r3, ip, r3, lsr r0
    1d30:	e0812103 	add	r2, r1, r3, lsl #2
    1d34:	e7d10103 	ldrb	r0, [r1, r3, lsl #2]
    1d38:	e5d23001 	ldrb	r3, [r2, #1]
    1d3c:	e1d2c0b2 	ldrh	ip, [r2, #2]
    1d40:	e0882003 	add	r2, r8, r3
    1d44:	e1540002 	cmp	r4, r2
    1d48:	2a00001c 	bcs	1dc0 <zlib_inflate+0x434>
    1d4c:	e3550000 	cmp	r5, #0
    1d50:	0a000400 	beq	2d58 <zlib_inflate+0x13cc>
    1d54:	e58db044 	str	fp, [sp, #68]	; 0x44
    1d58:	e1a0800a 	mov	r8, sl
    1d5c:	e58d904c 	str	r9, [sp, #76]	; 0x4c
    1d60:	e58d7048 	str	r7, [sp, #72]	; 0x48
    1d64:	e59d2038 	ldr	r2, [sp, #56]	; 0x38
    1d68:	e59db03c 	ldr	fp, [sp, #60]	; 0x3c
    1d6c:	e59d9040 	ldr	r9, [sp, #64]	; 0x40
    1d70:	ea000001 	b	1d7c <zlib_inflate+0x3f0>
    1d74:	e3550000 	cmp	r5, #0
    1d78:	0a000401 	beq	2d84 <zlib_inflate+0x13f8>
    1d7c:	e4d83001 	ldrb	r3, [r8], #1
    1d80:	e2455001 	sub	r5, r5, #1
    1d84:	e0866413 	add	r6, r6, r3, lsl r4
    1d88:	e2844008 	add	r4, r4, #8
    1d8c:	e0063009 	and	r3, r6, r9
    1d90:	e1a0a008 	mov	sl, r8
    1d94:	e08b3233 	add	r3, fp, r3, lsr r2
    1d98:	e081c103 	add	ip, r1, r3, lsl #2
    1d9c:	e7d10103 	ldrb	r0, [r1, r3, lsl #2]
    1da0:	e5dc3001 	ldrb	r3, [ip, #1]
    1da4:	e1dcc0b2 	ldrh	ip, [ip, #2]
    1da8:	e0837002 	add	r7, r3, r2
    1dac:	e1570004 	cmp	r7, r4
    1db0:	8affffef 	bhi	1d74 <zlib_inflate+0x3e8>
    1db4:	e59db044 	ldr	fp, [sp, #68]	; 0x44
    1db8:	e59d7048 	ldr	r7, [sp, #72]	; 0x48
    1dbc:	e59d904c 	ldr	r9, [sp, #76]	; 0x4c
    1dc0:	e59d1038 	ldr	r1, [sp, #56]	; 0x38
    1dc4:	e0694004 	rsb	r4, r9, r4
    1dc8:	e1a06136 	lsr	r6, r6, r1
    1dcc:	e3100040 	tst	r0, #64	; 0x40
    1dd0:	e1a06336 	lsr	r6, r6, r3
    1dd4:	e0634004 	rsb	r4, r3, r4
    1dd8:	0a000393 	beq	2c2c <zlib_inflate+0x12a0>
    1ddc:	e59d8010 	ldr	r8, [sp, #16]
    1de0:	e3a0201b 	mov	r2, #27
    1de4:	e59f1b70 	ldr	r1, [pc, #2928]	; 295c <zlib_inflate+0xfd0>
    1de8:	e1a03002 	mov	r3, r2
    1dec:	e08f1001 	add	r1, pc, r1
    1df0:	e5881018 	str	r1, [r8, #24]
    1df4:	e5872000 	str	r2, [r7]
    1df8:	eaffff0f 	b	1a3c <zlib_inflate+0xb0>
    1dfc:	e5970044 	ldr	r0, [r7, #68]	; 0x44
    1e00:	e3500000 	cmp	r0, #0
    1e04:	05973040 	ldreq	r3, [r7, #64]	; 0x40
    1e08:	0a000015 	beq	1e64 <zlib_inflate+0x4d8>
    1e0c:	e1540000 	cmp	r4, r0
    1e10:	2a00000c 	bcs	1e48 <zlib_inflate+0x4bc>
    1e14:	e3550000 	cmp	r5, #0
    1e18:	0a0003ce 	beq	2d58 <zlib_inflate+0x13cc>
    1e1c:	e1a0300a 	mov	r3, sl
    1e20:	ea000001 	b	1e2c <zlib_inflate+0x4a0>
    1e24:	e3550000 	cmp	r5, #0
    1e28:	0a00035e 	beq	2ba8 <zlib_inflate+0x121c>
    1e2c:	e4d32001 	ldrb	r2, [r3], #1
    1e30:	e2455001 	sub	r5, r5, #1
    1e34:	e0866412 	add	r6, r6, r2, lsl r4
    1e38:	e2844008 	add	r4, r4, #8
    1e3c:	e1540000 	cmp	r4, r0
    1e40:	e1a0a003 	mov	sl, r3
    1e44:	3afffff6 	bcc	1e24 <zlib_inflate+0x498>
    1e48:	e3e02000 	mvn	r2, #0
    1e4c:	e5973040 	ldr	r3, [r7, #64]	; 0x40
    1e50:	e1c62012 	bic	r2, r6, r2, lsl r0
    1e54:	e0604004 	rsb	r4, r0, r4
    1e58:	e1a06036 	lsr	r6, r6, r0
    1e5c:	e0823003 	add	r3, r2, r3
    1e60:	e5873040 	str	r3, [r7, #64]	; 0x40
    1e64:	e5972028 	ldr	r2, [r7, #40]	; 0x28
    1e68:	e59d800c 	ldr	r8, [sp, #12]
    1e6c:	e08b2002 	add	r2, fp, r2
    1e70:	e0682002 	rsb	r2, r8, r2
    1e74:	e1520003 	cmp	r2, r3
    1e78:	23a03016 	movcs	r3, #22
    1e7c:	25873000 	strcs	r3, [r7]
    1e80:	3a000361 	bcc	2c0c <zlib_inflate+0x1280>
    1e84:	e59d800c 	ldr	r8, [sp, #12]
    1e88:	e3580000 	cmp	r8, #0
    1e8c:	0a0003b1 	beq	2d58 <zlib_inflate+0x13cc>
    1e90:	e59d800c 	ldr	r8, [sp, #12]
    1e94:	e5971040 	ldr	r1, [r7, #64]	; 0x40
    1e98:	e068c00b 	rsb	ip, r8, fp
    1e9c:	e15c0001 	cmp	ip, r1
    1ea0:	2a000351 	bcs	2bec <zlib_inflate+0x1260>
    1ea4:	e597302c 	ldr	r3, [r7, #44]	; 0x2c
    1ea8:	e06cc001 	rsb	ip, ip, r1
    1eac:	e597003c 	ldr	r0, [r7, #60]	; 0x3c
    1eb0:	e15c0003 	cmp	ip, r3
    1eb4:	8063c00c 	rsbhi	ip, r3, ip
    1eb8:	906c3003 	rsbls	r3, ip, r3
    1ebc:	85972024 	ldrhi	r2, [r7, #36]	; 0x24
    1ec0:	85973030 	ldrhi	r3, [r7, #48]	; 0x30
    1ec4:	95972030 	ldrls	r2, [r7, #48]	; 0x30
    1ec8:	806c2002 	rsbhi	r2, ip, r2
    1ecc:	e15c0000 	cmp	ip, r0
    1ed0:	21a0c000 	movcs	ip, r0
    1ed4:	e0821003 	add	r1, r2, r3
    1ed8:	e59d800c 	ldr	r8, [sp, #12]
    1edc:	e2411001 	sub	r1, r1, #1
    1ee0:	e59d2024 	ldr	r2, [sp, #36]	; 0x24
    1ee4:	e15c0008 	cmp	ip, r8
    1ee8:	21a0c008 	movcs	ip, r8
    1eec:	e06c8008 	rsb	r8, ip, r8
    1ef0:	e06c0000 	rsb	r0, ip, r0
    1ef4:	e1a0300c 	mov	r3, ip
    1ef8:	e58d800c 	str	r8, [sp, #12]
    1efc:	e587003c 	str	r0, [r7, #60]	; 0x3c
    1f00:	e5f10001 	ldrb	r0, [r1, #1]!
    1f04:	e2533001 	subs	r3, r3, #1
    1f08:	e4c20001 	strb	r0, [r2], #1
    1f0c:	1afffffb 	bne	1f00 <zlib_inflate+0x574>
    1f10:	e597303c 	ldr	r3, [r7, #60]	; 0x3c
    1f14:	e59d8024 	ldr	r8, [sp, #36]	; 0x24
    1f18:	e3530000 	cmp	r3, #0
    1f1c:	e088800c 	add	r8, r8, ip
    1f20:	e58d8024 	str	r8, [sp, #36]	; 0x24
    1f24:	03a03012 	moveq	r3, #18
    1f28:	15973000 	ldrne	r3, [r7]
    1f2c:	05873000 	streq	r3, [r7]
    1f30:	eafffec1 	b	1a3c <zlib_inflate+0xb0>
    1f34:	e3e08001 	mvn	r8, #1
    1f38:	e58d8014 	str	r8, [sp, #20]
    1f3c:	e59d0014 	ldr	r0, [sp, #20]
    1f40:	e28dd054 	add	sp, sp, #84	; 0x54
    1f44:	e8bd8ff0 	pop	{r4, r5, r6, r7, r8, r9, sl, fp, pc}
    1f48:	e2043007 	and	r3, r4, #7
    1f4c:	e3c44007 	bic	r4, r4, #7
    1f50:	e354001f 	cmp	r4, #31
    1f54:	e1a06336 	lsr	r6, r6, r3
    1f58:	8a00000c 	bhi	1f90 <zlib_inflate+0x604>
    1f5c:	e3550000 	cmp	r5, #0
    1f60:	0a00037c 	beq	2d58 <zlib_inflate+0x13cc>
    1f64:	e1a0300a 	mov	r3, sl
    1f68:	ea000001 	b	1f74 <zlib_inflate+0x5e8>
    1f6c:	e3550000 	cmp	r5, #0
    1f70:	0a00030c 	beq	2ba8 <zlib_inflate+0x121c>
    1f74:	e4d32001 	ldrb	r2, [r3], #1
    1f78:	e2455001 	sub	r5, r5, #1
    1f7c:	e0866412 	add	r6, r6, r2, lsl r4
    1f80:	e2844008 	add	r4, r4, #8
    1f84:	e354001f 	cmp	r4, #31
    1f88:	e1a0a003 	mov	sl, r3
    1f8c:	9afffff6 	bls	1f6c <zlib_inflate+0x5e0>
    1f90:	e1a02826 	lsr	r2, r6, #16
    1f94:	e6ff3076 	uxth	r3, r6
    1f98:	e2222cff 	eor	r2, r2, #65280	; 0xff00
    1f9c:	e22220ff 	eor	r2, r2, #255	; 0xff
    1fa0:	e1530002 	cmp	r3, r2
    1fa4:	0a00038d 	beq	2de0 <zlib_inflate+0x1454>
    1fa8:	e59d8010 	ldr	r8, [sp, #16]
    1fac:	e3a0201b 	mov	r2, #27
    1fb0:	e59f19a8 	ldr	r1, [pc, #2472]	; 2960 <zlib_inflate+0xfd4>
    1fb4:	e1a03002 	mov	r3, r2
    1fb8:	e08f1001 	add	r1, pc, r1
    1fbc:	e5881018 	str	r1, [r8, #24]
    1fc0:	e5872000 	str	r2, [r7]
    1fc4:	eafffe9c 	b	1a3c <zlib_inflate+0xb0>
    1fc8:	e597303c 	ldr	r3, [r7, #60]	; 0x3c
    1fcc:	e3530000 	cmp	r3, #0
    1fd0:	0a00030a 	beq	2c00 <zlib_inflate+0x1274>
    1fd4:	e59d800c 	ldr	r8, [sp, #12]
    1fd8:	e1550003 	cmp	r5, r3
    1fdc:	31a03005 	movcc	r3, r5
    1fe0:	e1530008 	cmp	r3, r8
    1fe4:	31a08003 	movcc	r8, r3
    1fe8:	e3580000 	cmp	r8, #0
    1fec:	0a000359 	beq	2d58 <zlib_inflate+0x13cc>
    1ff0:	e1a0100a 	mov	r1, sl
    1ff4:	e59d0024 	ldr	r0, [sp, #36]	; 0x24
    1ff8:	e1a02008 	mov	r2, r8
    1ffc:	e0685005 	rsb	r5, r8, r5
    2000:	eb0005a3 	bl	3694 <memcpy>
    2004:	e59dc00c 	ldr	ip, [sp, #12]
    2008:	e597303c 	ldr	r3, [r7, #60]	; 0x3c
    200c:	e08aa008 	add	sl, sl, r8
    2010:	e068c00c 	rsb	ip, r8, ip
    2014:	e58dc00c 	str	ip, [sp, #12]
    2018:	e59dc024 	ldr	ip, [sp, #36]	; 0x24
    201c:	e0683003 	rsb	r3, r8, r3
    2020:	e587303c 	str	r3, [r7, #60]	; 0x3c
    2024:	e08cc008 	add	ip, ip, r8
    2028:	e5973000 	ldr	r3, [r7]
    202c:	e58dc024 	str	ip, [sp, #36]	; 0x24
    2030:	eafffe81 	b	1a3c <zlib_inflate+0xb0>
    2034:	e3e03003 	mvn	r3, #3
    2038:	e58d3014 	str	r3, [sp, #20]
    203c:	eaffffbe 	b	1f3c <zlib_inflate+0x5b0>
    2040:	e5971058 	ldr	r1, [r7, #88]	; 0x58
    2044:	e5973064 	ldr	r3, [r7, #100]	; 0x64
    2048:	e1510003 	cmp	r1, r3
    204c:	9a000016 	bls	20ac <zlib_inflate+0x720>
    2050:	e59f290c 	ldr	r2, [pc, #2316]	; 2964 <zlib_inflate+0xfd8>
    2054:	e08f2002 	add	r2, pc, r2
    2058:	e0822083 	add	r2, r2, r3, lsl #1
    205c:	e2822e97 	add	r2, r2, #2416	; 0x970
    2060:	e282200e 	add	r2, r2, #14
    2064:	e3540002 	cmp	r4, #2
    2068:	8a000005 	bhi	2084 <zlib_inflate+0x6f8>
    206c:	e3550000 	cmp	r5, #0
    2070:	0a0002cc 	beq	2ba8 <zlib_inflate+0x121c>
    2074:	e4da0001 	ldrb	r0, [sl], #1
    2078:	e2455001 	sub	r5, r5, #1
    207c:	e0866410 	add	r6, r6, r0, lsl r4
    2080:	e2844008 	add	r4, r4, #8
    2084:	e1f200b2 	ldrh	r0, [r2, #2]!
    2088:	e2833001 	add	r3, r3, #1
    208c:	e1530001 	cmp	r3, r1
    2090:	e206c007 	and	ip, r6, #7
    2094:	e2444003 	sub	r4, r4, #3
    2098:	e1a061a6 	lsr	r6, r6, #3
    209c:	e0870080 	add	r0, r7, r0, lsl #1
    20a0:	e1c0c6bc 	strh	ip, [r0, #108]	; 0x6c
    20a4:	e5873064 	str	r3, [r7, #100]	; 0x64
    20a8:	3affffed 	bcc	2064 <zlib_inflate+0x6d8>
    20ac:	e3530012 	cmp	r3, #18
    20b0:	8a00000c 	bhi	20e8 <zlib_inflate+0x75c>
    20b4:	e2433001 	sub	r3, r3, #1
    20b8:	e59d8028 	ldr	r8, [sp, #40]	; 0x28
    20bc:	e59d0034 	ldr	r0, [sp, #52]	; 0x34
    20c0:	e3a01000 	mov	r1, #0
    20c4:	e0883083 	add	r3, r8, r3, lsl #1
    20c8:	e1f320b2 	ldrh	r2, [r3, #2]!
    20cc:	e2822034 	add	r2, r2, #52	; 0x34
    20d0:	e1530000 	cmp	r3, r0
    20d4:	e0872082 	add	r2, r7, r2, lsl #1
    20d8:	e1c210b4 	strh	r1, [r2, #4]
    20dc:	1afffff9 	bne	20c8 <zlib_inflate+0x73c>
    20e0:	e3a03013 	mov	r3, #19
    20e4:	e5873064 	str	r3, [r7, #100]	; 0x64
    20e8:	e2873e52 	add	r3, r7, #1312	; 0x520
    20ec:	e3a02007 	mov	r2, #7
    20f0:	e283300c 	add	r3, r3, #12
    20f4:	e5872050 	str	r2, [r7, #80]	; 0x50
    20f8:	e5873068 	str	r3, [r7, #104]	; 0x68
    20fc:	e3a00000 	mov	r0, #0
    2100:	e5873048 	str	r3, [r7, #72]	; 0x48
    2104:	e287106c 	add	r1, r7, #108	; 0x6c
    2108:	e3a02013 	mov	r2, #19
    210c:	e2873068 	add	r3, r7, #104	; 0x68
    2110:	e287e050 	add	lr, r7, #80	; 0x50
    2114:	e287cfbb 	add	ip, r7, #748	; 0x2ec
    2118:	e58de000 	str	lr, [sp]
    211c:	e58dc004 	str	ip, [sp, #4]
    2120:	ebfffad4 	bl	c78 <zlib_inflate_table>
    2124:	e3500000 	cmp	r0, #0
    2128:	e58d0014 	str	r0, [sp, #20]
    212c:	0a0003b3 	beq	3000 <zlib_inflate+0x1674>
    2130:	e59dc010 	ldr	ip, [sp, #16]
    2134:	e3a0201b 	mov	r2, #27
    2138:	e59f1828 	ldr	r1, [pc, #2088]	; 2968 <zlib_inflate+0xfdc>
    213c:	e1a03002 	mov	r3, r2
    2140:	e08f1001 	add	r1, pc, r1
    2144:	e58c1018 	str	r1, [ip, #24]
    2148:	e5872000 	str	r2, [r7]
    214c:	eafffe3a 	b	1a3c <zlib_inflate+0xb0>
    2150:	e5973008 	ldr	r3, [r7, #8]
    2154:	e3530000 	cmp	r3, #0
    2158:	03a0300c 	moveq	r3, #12
    215c:	05873000 	streq	r3, [r7]
    2160:	0afffe35 	beq	1a3c <zlib_inflate+0xb0>
    2164:	e354000f 	cmp	r4, #15
    2168:	8a00000c 	bhi	21a0 <zlib_inflate+0x814>
    216c:	e3550000 	cmp	r5, #0
    2170:	0a00028c 	beq	2ba8 <zlib_inflate+0x121c>
    2174:	e1a0300a 	mov	r3, sl
    2178:	ea000001 	b	2184 <zlib_inflate+0x7f8>
    217c:	e3550000 	cmp	r5, #0
    2180:	0a000288 	beq	2ba8 <zlib_inflate+0x121c>
    2184:	e4d32001 	ldrb	r2, [r3], #1
    2188:	e2455001 	sub	r5, r5, #1
    218c:	e0866412 	add	r6, r6, r2, lsl r4
    2190:	e2844008 	add	r4, r4, #8
    2194:	e354000f 	cmp	r4, #15
    2198:	e1a0a003 	mov	sl, r3
    219c:	9afffff6 	bls	217c <zlib_inflate+0x7f0>
    21a0:	e1a01c06 	lsl	r1, r6, #24
    21a4:	e1a03426 	lsr	r3, r6, #8
    21a8:	e3012085 	movw	r2, #4229	; 0x1085
    21ac:	e3402842 	movt	r2, #2114	; 0x842
    21b0:	e0833821 	add	r3, r3, r1, lsr #16
    21b4:	e0820392 	umull	r0, r2, r2, r3
    21b8:	e0621003 	rsb	r1, r2, r3
    21bc:	e08220a1 	add	r2, r2, r1, lsr #1
    21c0:	e1a02222 	lsr	r2, r2, #4
    21c4:	e0622282 	rsb	r2, r2, r2, lsl #5
    21c8:	e0533002 	subs	r3, r3, r2
    21cc:	0a0002f8 	beq	2db4 <zlib_inflate+0x1428>
    21d0:	e59d8010 	ldr	r8, [sp, #16]
    21d4:	e3a0201b 	mov	r2, #27
    21d8:	e59f178c 	ldr	r1, [pc, #1932]	; 296c <zlib_inflate+0xfe0>
    21dc:	e1a03002 	mov	r3, r2
    21e0:	e08f1001 	add	r1, pc, r1
    21e4:	e5881018 	str	r1, [r8, #24]
    21e8:	e5872000 	str	r2, [r7]
    21ec:	eafffe12 	b	1a3c <zlib_inflate+0xb0>
    21f0:	e59dc00c 	ldr	ip, [sp, #12]
    21f4:	e35c0000 	cmp	ip, #0
    21f8:	0a00026a 	beq	2ba8 <zlib_inflate+0x121c>
    21fc:	e59dc024 	ldr	ip, [sp, #36]	; 0x24
    2200:	e3a02012 	mov	r2, #18
    2204:	e597103c 	ldr	r1, [r7, #60]	; 0x3c
    2208:	e1a03002 	mov	r3, r2
    220c:	e59d800c 	ldr	r8, [sp, #12]
    2210:	e4cc1001 	strb	r1, [ip], #1
    2214:	e2488001 	sub	r8, r8, #1
    2218:	e58dc024 	str	ip, [sp, #36]	; 0x24
    221c:	e58d800c 	str	r8, [sp, #12]
    2220:	e5872000 	str	r2, [r7]
    2224:	eafffe04 	b	1a3c <zlib_inflate+0xb0>
    2228:	e5973008 	ldr	r3, [r7, #8]
    222c:	e3530000 	cmp	r3, #0
    2230:	0a0003a0 	beq	30b8 <zlib_inflate+0x172c>
    2234:	e354001f 	cmp	r4, #31
    2238:	8a00000c 	bhi	2270 <zlib_inflate+0x8e4>
    223c:	e3550000 	cmp	r5, #0
    2240:	0a000258 	beq	2ba8 <zlib_inflate+0x121c>
    2244:	e1a0300a 	mov	r3, sl
    2248:	ea000001 	b	2254 <zlib_inflate+0x8c8>
    224c:	e3550000 	cmp	r5, #0
    2250:	0a000254 	beq	2ba8 <zlib_inflate+0x121c>
    2254:	e4d32001 	ldrb	r2, [r3], #1
    2258:	e2455001 	sub	r5, r5, #1
    225c:	e0866412 	add	r6, r6, r2, lsl r4
    2260:	e2844008 	add	r4, r4, #8
    2264:	e354001f 	cmp	r4, #31
    2268:	e1a0a003 	mov	sl, r3
    226c:	9afffff6 	bls	224c <zlib_inflate+0x8c0>
    2270:	e59d8010 	ldr	r8, [sp, #16]
    2274:	e59dc00c 	ldr	ip, [sp, #12]
    2278:	e5983014 	ldr	r3, [r8, #20]
    227c:	e06c800b 	rsb	r8, ip, fp
    2280:	e59dc010 	ldr	ip, [sp, #16]
    2284:	e3580000 	cmp	r8, #0
    2288:	e0833008 	add	r3, r3, r8
    228c:	e58c3014 	str	r3, [ip, #20]
    2290:	e597301c 	ldr	r3, [r7, #28]
    2294:	e0833008 	add	r3, r3, r8
    2298:	e587301c 	str	r3, [r7, #28]
    229c:	0a000072 	beq	246c <zlib_inflate+0xae0>
    22a0:	e59dc024 	ldr	ip, [sp, #36]	; 0x24
    22a4:	e5979018 	ldr	r9, [r7, #24]
    22a8:	e05c2008 	subs	r2, ip, r8
    22ac:	03a09001 	moveq	r9, #1
    22b0:	0a00006a 	beq	2460 <zlib_inflate+0xad4>
    22b4:	e3083071 	movw	r3, #32881	; 0x8071
    22b8:	e6ffb079 	uxth	fp, r9
    22bc:	e3483007 	movt	r3, #32775	; 0x8007
    22c0:	e1a09829 	lsr	r9, r9, #16
    22c4:	e58d5038 	str	r5, [sp, #56]	; 0x38
    22c8:	e58d7044 	str	r7, [sp, #68]	; 0x44
    22cc:	e1a05009 	mov	r5, r9
    22d0:	e1a07002 	mov	r7, r2
    22d4:	e1a0900a 	mov	r9, sl
    22d8:	e1a0a003 	mov	sl, r3
    22dc:	e58d603c 	str	r6, [sp, #60]	; 0x3c
    22e0:	e58d4040 	str	r4, [sp, #64]	; 0x40
    22e4:	e30165b0 	movw	r6, #5552	; 0x15b0
    22e8:	e1580006 	cmp	r8, r6
    22ec:	31a06008 	movcc	r6, r8
    22f0:	e356000f 	cmp	r6, #15
    22f4:	e0668008 	rsb	r8, r6, r8
    22f8:	e1a01006 	mov	r1, r6
    22fc:	da00003a 	ble	23ec <zlib_inflate+0xa60>
    2300:	e1a02006 	mov	r2, r6
    2304:	e1a03007 	mov	r3, r7
    2308:	e5d30000 	ldrb	r0, [r3]
    230c:	e2422010 	sub	r2, r2, #16
    2310:	e5d31001 	ldrb	r1, [r3, #1]
    2314:	e352000f 	cmp	r2, #15
    2318:	e080b00b 	add	fp, r0, fp
    231c:	e5d34002 	ldrb	r4, [r3, #2]
    2320:	e08b1001 	add	r1, fp, r1
    2324:	e08b5005 	add	r5, fp, r5
    2328:	e5d3c003 	ldrb	ip, [r3, #3]
    232c:	e0814004 	add	r4, r1, r4
    2330:	e5d30004 	ldrb	r0, [r3, #4]
    2334:	e0855001 	add	r5, r5, r1
    2338:	e084c00c 	add	ip, r4, ip
    233c:	e5d31005 	ldrb	r1, [r3, #5]
    2340:	e0855004 	add	r5, r5, r4
    2344:	e08c0000 	add	r0, ip, r0
    2348:	e5d34006 	ldrb	r4, [r3, #6]
    234c:	e085500c 	add	r5, r5, ip
    2350:	e0801001 	add	r1, r0, r1
    2354:	e5d3c007 	ldrb	ip, [r3, #7]
    2358:	e0855000 	add	r5, r5, r0
    235c:	e0814004 	add	r4, r1, r4
    2360:	e5d30008 	ldrb	r0, [r3, #8]
    2364:	e0855001 	add	r5, r5, r1
    2368:	e084c00c 	add	ip, r4, ip
    236c:	e5d31009 	ldrb	r1, [r3, #9]
    2370:	e0855004 	add	r5, r5, r4
    2374:	e08c0000 	add	r0, ip, r0
    2378:	e5d3400a 	ldrb	r4, [r3, #10]
    237c:	e085500c 	add	r5, r5, ip
    2380:	e0801001 	add	r1, r0, r1
    2384:	e5d3c00b 	ldrb	ip, [r3, #11]
    2388:	e0855000 	add	r5, r5, r0
    238c:	e0814004 	add	r4, r1, r4
    2390:	e0855001 	add	r5, r5, r1
    2394:	e5d3000c 	ldrb	r0, [r3, #12]
    2398:	e084c00c 	add	ip, r4, ip
    239c:	e5d3100d 	ldrb	r1, [r3, #13]
    23a0:	e0854004 	add	r4, r5, r4
    23a4:	e08c0000 	add	r0, ip, r0
    23a8:	e5d3500e 	ldrb	r5, [r3, #14]
    23ac:	e084400c 	add	r4, r4, ip
    23b0:	e0801001 	add	r1, r0, r1
    23b4:	e5d3b00f 	ldrb	fp, [r3, #15]
    23b8:	e0844000 	add	r4, r4, r0
    23bc:	e0815005 	add	r5, r1, r5
    23c0:	e0844001 	add	r4, r4, r1
    23c4:	e085b00b 	add	fp, r5, fp
    23c8:	e0845005 	add	r5, r4, r5
    23cc:	e2833010 	add	r3, r3, #16
    23d0:	e085500b 	add	r5, r5, fp
    23d4:	caffffcb 	bgt	2308 <zlib_inflate+0x97c>
    23d8:	e2461010 	sub	r1, r6, #16
    23dc:	e1a03221 	lsr	r3, r1, #4
    23e0:	e2832001 	add	r2, r3, #1
    23e4:	e0411203 	sub	r1, r1, r3, lsl #4
    23e8:	e0877202 	add	r7, r7, r2, lsl #4
    23ec:	e3510000 	cmp	r1, #0
    23f0:	0a000007 	beq	2414 <zlib_inflate+0xa88>
    23f4:	e1a03001 	mov	r3, r1
    23f8:	e1a02007 	mov	r2, r7
    23fc:	e4d20001 	ldrb	r0, [r2], #1
    2400:	e2533001 	subs	r3, r3, #1
    2404:	e08bb000 	add	fp, fp, r0
    2408:	e085500b 	add	r5, r5, fp
    240c:	1afffffa 	bne	23fc <zlib_inflate+0xa70>
    2410:	e0877001 	add	r7, r7, r1
    2414:	e0820b9a 	umull	r0, r2, sl, fp
    2418:	e3580000 	cmp	r8, #0
    241c:	e083159a 	umull	r1, r3, sl, r5
    2420:	e1a027a2 	lsr	r2, r2, #15
    2424:	e0621602 	rsb	r1, r2, r2, lsl #12
    2428:	e1a037a3 	lsr	r3, r3, #15
    242c:	e0822201 	add	r2, r2, r1, lsl #4
    2430:	e0631603 	rsb	r1, r3, r3, lsl #12
    2434:	e062b00b 	rsb	fp, r2, fp
    2438:	e0833201 	add	r3, r3, r1, lsl #4
    243c:	e0635005 	rsb	r5, r3, r5
    2440:	1affffa7 	bne	22e4 <zlib_inflate+0x958>
    2444:	e1a0a009 	mov	sl, r9
    2448:	e59d603c 	ldr	r6, [sp, #60]	; 0x3c
    244c:	e1a09005 	mov	r9, r5
    2450:	e59d4040 	ldr	r4, [sp, #64]	; 0x40
    2454:	e59d7044 	ldr	r7, [sp, #68]	; 0x44
    2458:	e18b9809 	orr	r9, fp, r9, lsl #16
    245c:	e59d5038 	ldr	r5, [sp, #56]	; 0x38
    2460:	e59d8010 	ldr	r8, [sp, #16]
    2464:	e5879018 	str	r9, [r7, #24]
    2468:	e5889028 	str	r9, [r8, #40]	; 0x28
    246c:	e1a02c26 	lsr	r2, r6, #24
    2470:	e1a03426 	lsr	r3, r6, #8
    2474:	e2033cff 	and	r3, r3, #65280	; 0xff00
    2478:	e0822c06 	add	r2, r2, r6, lsl #24
    247c:	e2061cff 	and	r1, r6, #65280	; 0xff00
    2480:	e0822003 	add	r2, r2, r3
    2484:	e5973018 	ldr	r3, [r7, #24]
    2488:	e0822401 	add	r2, r2, r1, lsl #8
    248c:	e1520003 	cmp	r2, r3
    2490:	0a000320 	beq	3118 <zlib_inflate+0x178c>
    2494:	e59dc010 	ldr	ip, [sp, #16]
    2498:	e3a0201b 	mov	r2, #27
    249c:	e59f14cc 	ldr	r1, [pc, #1228]	; 2970 <zlib_inflate+0xfe4>
    24a0:	e1a03002 	mov	r3, r2
    24a4:	e59db00c 	ldr	fp, [sp, #12]
    24a8:	e08f1001 	add	r1, pc, r1
    24ac:	e58c1018 	str	r1, [ip, #24]
    24b0:	e5872000 	str	r2, [r7]
    24b4:	eafffd60 	b	1a3c <zlib_inflate+0xb0>
    24b8:	e3a0c000 	mov	ip, #0
    24bc:	e59d8010 	ldr	r8, [sp, #16]
    24c0:	e3a03001 	mov	r3, #1
    24c4:	e58dc01c 	str	ip, [sp, #28]
    24c8:	e58d3014 	str	r3, [sp, #20]
    24cc:	e58dc010 	str	ip, [sp, #16]
    24d0:	e59dc024 	ldr	ip, [sp, #36]	; 0x24
    24d4:	e588a000 	str	sl, [r8]
    24d8:	e5885004 	str	r5, [r8, #4]
    24dc:	e588c00c 	str	ip, [r8, #12]
    24e0:	e59dc00c 	ldr	ip, [sp, #12]
    24e4:	e588c010 	str	ip, [r8, #16]
    24e8:	e5973024 	ldr	r3, [r7, #36]	; 0x24
    24ec:	e5876034 	str	r6, [r7, #52]	; 0x34
    24f0:	e3530000 	cmp	r3, #0
    24f4:	e5874038 	str	r4, [r7, #56]	; 0x38
    24f8:	1a000005 	bne	2514 <zlib_inflate+0xb88>
    24fc:	e5973000 	ldr	r3, [r7]
    2500:	e3530017 	cmp	r3, #23
    2504:	e5983010 	ldr	r3, [r8, #16]
    2508:	8a000005 	bhi	2524 <zlib_inflate+0xb98>
    250c:	e153000b 	cmp	r3, fp
    2510:	0a000003 	beq	2524 <zlib_inflate+0xb98>
    2514:	e1a00008 	mov	r0, r8
    2518:	e1a0100b 	mov	r1, fp
    251c:	ebfff9a3 	bl	bb0 <zlib_updatewindow>
    2520:	e5983010 	ldr	r3, [r8, #16]
    2524:	e5981004 	ldr	r1, [r8, #4]
    2528:	e063300b 	rsb	r3, r3, fp
    252c:	e59dc018 	ldr	ip, [sp, #24]
    2530:	e58d300c 	str	r3, [sp, #12]
    2534:	e5982008 	ldr	r2, [r8, #8]
    2538:	e061100c 	rsb	r1, r1, ip
    253c:	e5983014 	ldr	r3, [r8, #20]
    2540:	e59d000c 	ldr	r0, [sp, #12]
    2544:	e0822001 	add	r2, r2, r1
    2548:	e5882008 	str	r2, [r8, #8]
    254c:	e0833000 	add	r3, r3, r0
    2550:	e5883014 	str	r3, [r8, #20]
    2554:	e5972008 	ldr	r2, [r7, #8]
    2558:	e597301c 	ldr	r3, [r7, #28]
    255c:	e3500000 	cmp	r0, #0
    2560:	13520000 	cmpne	r2, #0
    2564:	e58d1018 	str	r1, [sp, #24]
    2568:	e0833000 	add	r3, r3, r0
    256c:	e587301c 	str	r3, [r7, #28]
    2570:	0a000067 	beq	2714 <zlib_inflate+0xd88>
    2574:	e598a00c 	ldr	sl, [r8, #12]
    2578:	e5975018 	ldr	r5, [r7, #24]
    257c:	e05aa000 	subs	sl, sl, r0
    2580:	03a05001 	moveq	r5, #1
    2584:	0a000060 	beq	270c <zlib_inflate+0xd80>
    2588:	e3083071 	movw	r3, #32881	; 0x8071
    258c:	e3483007 	movt	r3, #32775	; 0x8007
    2590:	e6ffb075 	uxth	fp, r5
    2594:	e1a05825 	lsr	r5, r5, #16
    2598:	e58d7024 	str	r7, [sp, #36]	; 0x24
    259c:	e1a09000 	mov	r9, r0
    25a0:	e1a07003 	mov	r7, r3
    25a4:	e30165b0 	movw	r6, #5552	; 0x15b0
    25a8:	e1590006 	cmp	r9, r6
    25ac:	31a06009 	movcc	r6, r9
    25b0:	e356000f 	cmp	r6, #15
    25b4:	e0669009 	rsb	r9, r6, r9
    25b8:	e1a01006 	mov	r1, r6
    25bc:	da00003a 	ble	26ac <zlib_inflate+0xd20>
    25c0:	e1a02006 	mov	r2, r6
    25c4:	e1a0300a 	mov	r3, sl
    25c8:	e5d31000 	ldrb	r1, [r3]
    25cc:	e2422010 	sub	r2, r2, #16
    25d0:	e5d3c001 	ldrb	ip, [r3, #1]
    25d4:	e352000f 	cmp	r2, #15
    25d8:	e081b00b 	add	fp, r1, fp
    25dc:	e5d34002 	ldrb	r4, [r3, #2]
    25e0:	e08b5005 	add	r5, fp, r5
    25e4:	e08bb00c 	add	fp, fp, ip
    25e8:	e5d3c003 	ldrb	ip, [r3, #3]
    25ec:	e08b4004 	add	r4, fp, r4
    25f0:	e5d30004 	ldrb	r0, [r3, #4]
    25f4:	e085500b 	add	r5, r5, fp
    25f8:	e084c00c 	add	ip, r4, ip
    25fc:	e5d31005 	ldrb	r1, [r3, #5]
    2600:	e0855004 	add	r5, r5, r4
    2604:	e08c0000 	add	r0, ip, r0
    2608:	e5d3b006 	ldrb	fp, [r3, #6]
    260c:	e085500c 	add	r5, r5, ip
    2610:	e0801001 	add	r1, r0, r1
    2614:	e5d3c007 	ldrb	ip, [r3, #7]
    2618:	e0855000 	add	r5, r5, r0
    261c:	e081b00b 	add	fp, r1, fp
    2620:	e5d30008 	ldrb	r0, [r3, #8]
    2624:	e0855001 	add	r5, r5, r1
    2628:	e08bc00c 	add	ip, fp, ip
    262c:	e5d31009 	ldrb	r1, [r3, #9]
    2630:	e085500b 	add	r5, r5, fp
    2634:	e08c0000 	add	r0, ip, r0
    2638:	e5d3400a 	ldrb	r4, [r3, #10]
    263c:	e085500c 	add	r5, r5, ip
    2640:	e0801001 	add	r1, r0, r1
    2644:	e5d3c00b 	ldrb	ip, [r3, #11]
    2648:	e0855000 	add	r5, r5, r0
    264c:	e0814004 	add	r4, r1, r4
    2650:	e0855001 	add	r5, r5, r1
    2654:	e5d3000c 	ldrb	r0, [r3, #12]
    2658:	e084c00c 	add	ip, r4, ip
    265c:	e5d3100d 	ldrb	r1, [r3, #13]
    2660:	e0854004 	add	r4, r5, r4
    2664:	e08c0000 	add	r0, ip, r0
    2668:	e5d3500e 	ldrb	r5, [r3, #14]
    266c:	e084400c 	add	r4, r4, ip
    2670:	e0801001 	add	r1, r0, r1
    2674:	e5d3b00f 	ldrb	fp, [r3, #15]
    2678:	e0844000 	add	r4, r4, r0
    267c:	e0815005 	add	r5, r1, r5
    2680:	e0844001 	add	r4, r4, r1
    2684:	e085b00b 	add	fp, r5, fp
    2688:	e0845005 	add	r5, r4, r5
    268c:	e2833010 	add	r3, r3, #16
    2690:	e085500b 	add	r5, r5, fp
    2694:	caffffcb 	bgt	25c8 <zlib_inflate+0xc3c>
    2698:	e2466010 	sub	r6, r6, #16
    269c:	e1a03226 	lsr	r3, r6, #4
    26a0:	e2832001 	add	r2, r3, #1
    26a4:	e0461203 	sub	r1, r6, r3, lsl #4
    26a8:	e08aa202 	add	sl, sl, r2, lsl #4
    26ac:	e3510000 	cmp	r1, #0
    26b0:	0a000007 	beq	26d4 <zlib_inflate+0xd48>
    26b4:	e1a03001 	mov	r3, r1
    26b8:	e1a0200a 	mov	r2, sl
    26bc:	e4d20001 	ldrb	r0, [r2], #1
    26c0:	e2533001 	subs	r3, r3, #1
    26c4:	e08bb000 	add	fp, fp, r0
    26c8:	e085500b 	add	r5, r5, fp
    26cc:	1afffffa 	bne	26bc <zlib_inflate+0xd30>
    26d0:	e08aa001 	add	sl, sl, r1
    26d4:	e0821b97 	umull	r1, r2, r7, fp
    26d8:	e3590000 	cmp	r9, #0
    26dc:	e083c597 	umull	ip, r3, r7, r5
    26e0:	e1a027a2 	lsr	r2, r2, #15
    26e4:	e0621602 	rsb	r1, r2, r2, lsl #12
    26e8:	e1a037a3 	lsr	r3, r3, #15
    26ec:	e0822201 	add	r2, r2, r1, lsl #4
    26f0:	e0631603 	rsb	r1, r3, r3, lsl #12
    26f4:	e062b00b 	rsb	fp, r2, fp
    26f8:	e0833201 	add	r3, r3, r1, lsl #4
    26fc:	e0635005 	rsb	r5, r3, r5
    2700:	1affffa7 	bne	25a4 <zlib_inflate+0xc18>
    2704:	e59d7024 	ldr	r7, [sp, #36]	; 0x24
    2708:	e18b5805 	orr	r5, fp, r5, lsl #16
    270c:	e5875018 	str	r5, [r7, #24]
    2710:	e5885028 	str	r5, [r8, #40]	; 0x28
    2714:	e897000c 	ldm	r7, {r2, r3}
    2718:	e59dc01c 	ldr	ip, [sp, #28]
    271c:	e3530000 	cmp	r3, #0
    2720:	e5971038 	ldr	r1, [r7, #56]	; 0x38
    2724:	13a03040 	movne	r3, #64	; 0x40
    2728:	e352000b 	cmp	r2, #11
    272c:	e0833001 	add	r3, r3, r1
    2730:	03a02080 	moveq	r2, #128	; 0x80
    2734:	13a02000 	movne	r2, #0
    2738:	e35c0000 	cmp	ip, #0
    273c:	e0833002 	add	r3, r3, r2
    2740:	e5883024 	str	r3, [r8, #36]	; 0x24
    2744:	0a000105 	beq	2b60 <zlib_inflate+0x11d4>
    2748:	e5983010 	ldr	r3, [r8, #16]
    274c:	e3530000 	cmp	r3, #0
    2750:	0a000102 	beq	2b60 <zlib_inflate+0x11d4>
    2754:	e5983004 	ldr	r3, [r8, #4]
    2758:	e3530000 	cmp	r3, #0
    275c:	1a0000ff 	bne	2b60 <zlib_inflate+0x11d4>
    2760:	e598301c 	ldr	r3, [r8, #28]
    2764:	e3530000 	cmp	r3, #0
    2768:	0a000188 	beq	2d90 <zlib_inflate+0x1404>
    276c:	e5932000 	ldr	r2, [r3]
    2770:	e352000d 	cmp	r2, #13
    2774:	13e03002 	mvnne	r3, #2
    2778:	158d3014 	strne	r3, [sp, #20]
    277c:	1afffdee 	bne	1f3c <zlib_inflate+0x5b0>
    2780:	e5932038 	ldr	r2, [r3, #56]	; 0x38
    2784:	e3520000 	cmp	r2, #0
    2788:	058d2014 	streq	r2, [sp, #20]
    278c:	03a0200b 	moveq	r2, #11
    2790:	05832000 	streq	r2, [r3]
    2794:	13e08002 	mvnne	r8, #2
    2798:	158d8014 	strne	r8, [sp, #20]
    279c:	eafffde6 	b	1f3c <zlib_inflate+0x5b0>
    27a0:	e5978064 	ldr	r8, [r7, #100]	; 0x64
    27a4:	e597205c 	ldr	r2, [r7, #92]	; 0x5c
    27a8:	e5979060 	ldr	r9, [r7, #96]	; 0x60
    27ac:	e0829009 	add	r9, r2, r9
    27b0:	e58d2038 	str	r2, [sp, #56]	; 0x38
    27b4:	e1590008 	cmp	r9, r8
    27b8:	9a0001c7 	bls	2edc <zlib_inflate+0x1550>
    27bc:	e597c050 	ldr	ip, [r7, #80]	; 0x50
    27c0:	e3a01001 	mov	r1, #1
    27c4:	e5970048 	ldr	r0, [r7, #72]	; 0x48
    27c8:	e1a0cc11 	lsl	ip, r1, ip
    27cc:	e24cc001 	sub	ip, ip, #1
    27d0:	e006300c 	and	r3, r6, ip
    27d4:	e0803103 	add	r3, r0, r3, lsl #2
    27d8:	e5d31001 	ldrb	r1, [r3, #1]
    27dc:	e1d320b2 	ldrh	r2, [r3, #2]
    27e0:	e1540001 	cmp	r4, r1
    27e4:	2a000010 	bcs	282c <zlib_inflate+0xea0>
    27e8:	e3550000 	cmp	r5, #0
    27ec:	0a0001f8 	beq	2fd4 <zlib_inflate+0x1648>
    27f0:	e1a0300a 	mov	r3, sl
    27f4:	ea000001 	b	2800 <zlib_inflate+0xe74>
    27f8:	e3550000 	cmp	r5, #0
    27fc:	0a0000e9 	beq	2ba8 <zlib_inflate+0x121c>
    2800:	e4d32001 	ldrb	r2, [r3], #1
    2804:	e2455001 	sub	r5, r5, #1
    2808:	e0866412 	add	r6, r6, r2, lsl r4
    280c:	e2844008 	add	r4, r4, #8
    2810:	e006200c 	and	r2, r6, ip
    2814:	e1a0a003 	mov	sl, r3
    2818:	e0802102 	add	r2, r0, r2, lsl #2
    281c:	e5d21001 	ldrb	r1, [r2, #1]
    2820:	e1d220b2 	ldrh	r2, [r2, #2]
    2824:	e1510004 	cmp	r1, r4
    2828:	8afffff2 	bhi	27f8 <zlib_inflate+0xe6c>
    282c:	e352000f 	cmp	r2, #15
    2830:	9a000103 	bls	2c44 <zlib_inflate+0x12b8>
    2834:	e3520010 	cmp	r2, #16
    2838:	0a000172 	beq	2e08 <zlib_inflate+0x147c>
    283c:	e3520011 	cmp	r2, #17
    2840:	0a00018b 	beq	2e74 <zlib_inflate+0x14e8>
    2844:	e2812007 	add	r2, r1, #7
    2848:	e1540002 	cmp	r4, r2
    284c:	2a00000c 	bcs	2884 <zlib_inflate+0xef8>
    2850:	e3550000 	cmp	r5, #0
    2854:	0a00013f 	beq	2d58 <zlib_inflate+0x13cc>
    2858:	e1a0300a 	mov	r3, sl
    285c:	ea000001 	b	2868 <zlib_inflate+0xedc>
    2860:	e3550000 	cmp	r5, #0
    2864:	0a0000cf 	beq	2ba8 <zlib_inflate+0x121c>
    2868:	e4d30001 	ldrb	r0, [r3], #1
    286c:	e2455001 	sub	r5, r5, #1
    2870:	e0866410 	add	r6, r6, r0, lsl r4
    2874:	e2844008 	add	r4, r4, #8
    2878:	e1540002 	cmp	r4, r2
    287c:	e1a0a003 	mov	sl, r3
    2880:	3afffff6 	bcc	2860 <zlib_inflate+0xed4>
    2884:	e1a06136 	lsr	r6, r6, r1
    2888:	e30f3ff9 	movw	r3, #65529	; 0xfff9
    288c:	e34f3fff 	movt	r3, #65535	; 0xffff
    2890:	e206207f 	and	r2, r6, #127	; 0x7f
    2894:	e0613003 	rsb	r3, r1, r3
    2898:	e1a063a6 	lsr	r6, r6, #7
    289c:	e282100b 	add	r1, r2, #11
    28a0:	e0844003 	add	r4, r4, r3
    28a4:	e3a00000 	mov	r0, #0
    28a8:	e081c008 	add	ip, r1, r8
    28ac:	e159000c 	cmp	r9, ip
    28b0:	3a000209 	bcc	30dc <zlib_inflate+0x1750>
    28b4:	e6ff0070 	uxth	r0, r0
    28b8:	e1a01081 	lsl	r1, r1, #1
    28bc:	e0878088 	add	r8, r7, r8, lsl #1
    28c0:	e3a03000 	mov	r3, #0
    28c4:	e0882003 	add	r2, r8, r3
    28c8:	e2833002 	add	r3, r3, #2
    28cc:	e1530001 	cmp	r3, r1
    28d0:	e1c206bc 	strh	r0, [r2, #108]	; 0x6c
    28d4:	1afffffa 	bne	28c4 <zlib_inflate+0xf38>
    28d8:	e1a0800c 	mov	r8, ip
    28dc:	e587c064 	str	ip, [r7, #100]	; 0x64
    28e0:	eaffffb3 	b	27b4 <zlib_inflate+0xe28>
    28e4:	e3a0c000 	mov	ip, #0
    28e8:	e59d8010 	ldr	r8, [sp, #16]
    28ec:	e3e03002 	mvn	r3, #2
    28f0:	e58dc01c 	str	ip, [sp, #28]
    28f4:	e58d3014 	str	r3, [sp, #20]
    28f8:	e58dc010 	str	ip, [sp, #16]
    28fc:	eafffef3 	b	24d0 <zlib_inflate+0xb44>
    2900:	e59d800c 	ldr	r8, [sp, #12]
    2904:	e3003101 	movw	r3, #257	; 0x101
    2908:	e3550005 	cmp	r5, #5
    290c:	81580003 	cmphi	r8, r3
    2910:	8a0000f8 	bhi	2cf8 <zlib_inflate+0x136c>
    2914:	e5973050 	ldr	r3, [r7, #80]	; 0x50
    2918:	e3e08000 	mvn	r8, #0
    291c:	e5970048 	ldr	r0, [r7, #72]	; 0x48
    2920:	e1e08318 	mvn	r8, r8, lsl r3
    2924:	e0062008 	and	r2, r6, r8
    2928:	e0803102 	add	r3, r0, r2, lsl #2
    292c:	e7d0c102 	ldrb	ip, [r0, r2, lsl #2]
    2930:	e5d31001 	ldrb	r1, [r3, #1]
    2934:	e1d320b2 	ldrh	r2, [r3, #2]
    2938:	e1540001 	cmp	r4, r1
    293c:	2a000023 	bcs	29d0 <zlib_inflate+0x1044>
    2940:	e3550000 	cmp	r5, #0
    2944:	0a000103 	beq	2d58 <zlib_inflate+0x13cc>
    2948:	e1a0300a 	mov	r3, sl
    294c:	ea000013 	b	29a0 <zlib_inflate+0x1014>
    2950:	00004180 	.word	0x00004180
    2954:	00004140 	.word	0x00004140
    2958:	00004c20 	.word	0x00004c20
    295c:	000047b0 	.word	0x000047b0
    2960:	00004674 	.word	0x00004674
    2964:	00003af8 	.word	0x00003af8
    2968:	00004530 	.word	0x00004530
    296c:	000043f0 	.word	0x000043f0
    2970:	00004234 	.word	0x00004234
    2974:	00003afc 	.word	0x00003afc
    2978:	00003960 	.word	0x00003960
    297c:	0000396c 	.word	0x0000396c
    2980:	00003818 	.word	0x00003818
    2984:	00003764 	.word	0x00003764
    2988:	00003640 	.word	0x00003640
    298c:	00003650 	.word	0x00003650
    2990:	000035a8 	.word	0x000035a8
    2994:	00003588 	.word	0x00003588
    2998:	e3550000 	cmp	r5, #0
    299c:	0a000081 	beq	2ba8 <zlib_inflate+0x121c>
    29a0:	e4d32001 	ldrb	r2, [r3], #1
    29a4:	e2455001 	sub	r5, r5, #1
    29a8:	e0866412 	add	r6, r6, r2, lsl r4
    29ac:	e2844008 	add	r4, r4, #8
    29b0:	e0061008 	and	r1, r6, r8
    29b4:	e1a0a003 	mov	sl, r3
    29b8:	e0802101 	add	r2, r0, r1, lsl #2
    29bc:	e7d0c101 	ldrb	ip, [r0, r1, lsl #2]
    29c0:	e5d21001 	ldrb	r1, [r2, #1]
    29c4:	e1d220b2 	ldrh	r2, [r2, #2]
    29c8:	e1510004 	cmp	r1, r4
    29cc:	8afffff1 	bhi	2998 <zlib_inflate+0x100c>
    29d0:	e35c0000 	cmp	ip, #0
    29d4:	0a0000f0 	beq	2d9c <zlib_inflate+0x1410>
    29d8:	e31c00f0 	tst	ip, #240	; 0xf0
    29dc:	1a000105 	bne	2df8 <zlib_inflate+0x146c>
    29e0:	e08cc001 	add	ip, ip, r1
    29e4:	e3e03000 	mvn	r3, #0
    29e8:	e1e03c13 	mvn	r3, r3, lsl ip
    29ec:	e58d3038 	str	r3, [sp, #56]	; 0x38
    29f0:	e0033006 	and	r3, r3, r6
    29f4:	e0823133 	add	r3, r2, r3, lsr r1
    29f8:	e0809103 	add	r9, r0, r3, lsl #2
    29fc:	e7d0c103 	ldrb	ip, [r0, r3, lsl #2]
    2a00:	e5d98001 	ldrb	r8, [r9, #1]
    2a04:	e1d990b2 	ldrh	r9, [r9, #2]
    2a08:	e0813008 	add	r3, r1, r8
    2a0c:	e1540003 	cmp	r4, r3
    2a10:	2a000019 	bcs	2a7c <zlib_inflate+0x10f0>
    2a14:	e3550000 	cmp	r5, #0
    2a18:	0a000062 	beq	2ba8 <zlib_inflate+0x121c>
    2a1c:	e58db03c 	str	fp, [sp, #60]	; 0x3c
    2a20:	e1a0900a 	mov	r9, sl
    2a24:	e1a0b007 	mov	fp, r7
    2a28:	ea000001 	b	2a34 <zlib_inflate+0x10a8>
    2a2c:	e3550000 	cmp	r5, #0
    2a30:	0a00005a 	beq	2ba0 <zlib_inflate+0x1214>
    2a34:	e4d93001 	ldrb	r3, [r9], #1
    2a38:	e2455001 	sub	r5, r5, #1
    2a3c:	e0866413 	add	r6, r6, r3, lsl r4
    2a40:	e59d3038 	ldr	r3, [sp, #56]	; 0x38
    2a44:	e2844008 	add	r4, r4, #8
    2a48:	e1a0a009 	mov	sl, r9
    2a4c:	e006c003 	and	ip, r6, r3
    2a50:	e082c13c 	add	ip, r2, ip, lsr r1
    2a54:	e080310c 	add	r3, r0, ip, lsl #2
    2a58:	e7d0c10c 	ldrb	ip, [r0, ip, lsl #2]
    2a5c:	e5d38001 	ldrb	r8, [r3, #1]
    2a60:	e1d370b2 	ldrh	r7, [r3, #2]
    2a64:	e0883001 	add	r3, r8, r1
    2a68:	e1530004 	cmp	r3, r4
    2a6c:	8affffee 	bhi	2a2c <zlib_inflate+0x10a0>
    2a70:	e1a09007 	mov	r9, r7
    2a74:	e1a0700b 	mov	r7, fp
    2a78:	e59db03c 	ldr	fp, [sp, #60]	; 0x3c
    2a7c:	e1a06136 	lsr	r6, r6, r1
    2a80:	e35c0000 	cmp	ip, #0
    2a84:	e0614004 	rsb	r4, r1, r4
    2a88:	e587903c 	str	r9, [r7, #60]	; 0x3c
    2a8c:	e1a06836 	lsr	r6, r6, r8
    2a90:	e0684004 	rsb	r4, r8, r4
    2a94:	0a0000c3 	beq	2da8 <zlib_inflate+0x141c>
    2a98:	e31c0020 	tst	ip, #32
    2a9c:	1a000057 	bne	2c00 <zlib_inflate+0x1274>
    2aa0:	e31c0040 	tst	ip, #64	; 0x40
    2aa4:	0a000136 	beq	2f84 <zlib_inflate+0x15f8>
    2aa8:	e59d8010 	ldr	r8, [sp, #16]
    2aac:	e3a0201b 	mov	r2, #27
    2ab0:	e51f1144 	ldr	r1, [pc, #-324]	; 2974 <zlib_inflate+0xfe8>
    2ab4:	e1a03002 	mov	r3, r2
    2ab8:	e08f1001 	add	r1, pc, r1
    2abc:	e5881018 	str	r1, [r8, #24]
    2ac0:	e5872000 	str	r2, [r7]
    2ac4:	eafffbdc 	b	1a3c <zlib_inflate+0xb0>
    2ac8:	e354000d 	cmp	r4, #13
    2acc:	8a00000c 	bhi	2b04 <zlib_inflate+0x1178>
    2ad0:	e3550000 	cmp	r5, #0
    2ad4:	0a00009f 	beq	2d58 <zlib_inflate+0x13cc>
    2ad8:	e1a0300a 	mov	r3, sl
    2adc:	ea000001 	b	2ae8 <zlib_inflate+0x115c>
    2ae0:	e3550000 	cmp	r5, #0
    2ae4:	0a00002f 	beq	2ba8 <zlib_inflate+0x121c>
    2ae8:	e4d32001 	ldrb	r2, [r3], #1
    2aec:	e2455001 	sub	r5, r5, #1
    2af0:	e0866412 	add	r6, r6, r2, lsl r4
    2af4:	e2844008 	add	r4, r4, #8
    2af8:	e354000d 	cmp	r4, #13
    2afc:	e1a0a003 	mov	sl, r3
    2b00:	9afffff6 	bls	2ae0 <zlib_inflate+0x1154>
    2b04:	e206301f 	and	r3, r6, #31
    2b08:	e300011e 	movw	r0, #286	; 0x11e
    2b0c:	e2833c01 	add	r3, r3, #256	; 0x100
    2b10:	e7e422d6 	ubfx	r2, r6, #5, #5
    2b14:	e2833001 	add	r3, r3, #1
    2b18:	e7e31556 	ubfx	r1, r6, #10, #4
    2b1c:	e1530000 	cmp	r3, r0
    2b20:	e2822001 	add	r2, r2, #1
    2b24:	e2811004 	add	r1, r1, #4
    2b28:	e587305c 	str	r3, [r7, #92]	; 0x5c
    2b2c:	e5872060 	str	r2, [r7, #96]	; 0x60
    2b30:	e1a06726 	lsr	r6, r6, #14
    2b34:	e5871058 	str	r1, [r7, #88]	; 0x58
    2b38:	e244400e 	sub	r4, r4, #14
    2b3c:	8a000066 	bhi	2cdc <zlib_inflate+0x1350>
    2b40:	e352001e 	cmp	r2, #30
    2b44:	8a000064 	bhi	2cdc <zlib_inflate+0x1350>
    2b48:	e3a02000 	mov	r2, #0
    2b4c:	e5872064 	str	r2, [r7, #100]	; 0x64
    2b50:	e1a03002 	mov	r3, r2
    2b54:	e3a02010 	mov	r2, #16
    2b58:	e5872000 	str	r2, [r7]
    2b5c:	eafffd3b 	b	2050 <zlib_inflate+0x6c4>
    2b60:	e59d000c 	ldr	r0, [sp, #12]
    2b64:	e59d1018 	ldr	r1, [sp, #24]
    2b68:	e59d8020 	ldr	r8, [sp, #32]
    2b6c:	e1900001 	orrs	r0, r0, r1
    2b70:	13a03000 	movne	r3, #0
    2b74:	03a03001 	moveq	r3, #1
    2b78:	e3580005 	cmp	r8, #5
    2b7c:	03833001 	orreq	r3, r3, #1
    2b80:	e3530000 	cmp	r3, #0
    2b84:	0afffcec 	beq	1f3c <zlib_inflate+0x5b0>
    2b88:	e59dc010 	ldr	ip, [sp, #16]
    2b8c:	e59d3014 	ldr	r3, [sp, #20]
    2b90:	e35c0000 	cmp	ip, #0
    2b94:	13e03004 	mvnne	r3, #4
    2b98:	e58d3014 	str	r3, [sp, #20]
    2b9c:	eafffce6 	b	1f3c <zlib_inflate+0x5b0>
    2ba0:	e1a0700b 	mov	r7, fp
    2ba4:	e59db03c 	ldr	fp, [sp, #60]	; 0x3c
    2ba8:	e59d2014 	ldr	r2, [sp, #20]
    2bac:	e59dc020 	ldr	ip, [sp, #32]
    2bb0:	e2722001 	rsbs	r2, r2, #1
    2bb4:	e59d8010 	ldr	r8, [sp, #16]
    2bb8:	33a02000 	movcc	r2, #0
    2bbc:	e58d2010 	str	r2, [sp, #16]
    2bc0:	e35c0002 	cmp	ip, #2
    2bc4:	13a02000 	movne	r2, #0
    2bc8:	02022001 	andeq	r2, r2, #1
    2bcc:	e58d201c 	str	r2, [sp, #28]
    2bd0:	eafffe3e 	b	24d0 <zlib_inflate+0xb44>
    2bd4:	e5983004 	ldr	r3, [r8, #4]
    2bd8:	e3530000 	cmp	r3, #0
    2bdc:	13e03001 	mvnne	r3, #1
    2be0:	158d3014 	strne	r3, [sp, #20]
    2be4:	0afffb73 	beq	19b8 <zlib_inflate+0x2c>
    2be8:	eafffcd3 	b	1f3c <zlib_inflate+0x5b0>
    2bec:	e597c03c 	ldr	ip, [r7, #60]	; 0x3c
    2bf0:	e59d8024 	ldr	r8, [sp, #36]	; 0x24
    2bf4:	e1a0000c 	mov	r0, ip
    2bf8:	e0611008 	rsb	r1, r1, r8
    2bfc:	eafffcb5 	b	1ed8 <zlib_inflate+0x54c>
    2c00:	e3a0300b 	mov	r3, #11
    2c04:	e5873000 	str	r3, [r7]
    2c08:	eafffb8b 	b	1a3c <zlib_inflate+0xb0>
    2c0c:	e59dc010 	ldr	ip, [sp, #16]
    2c10:	e3a0201b 	mov	r2, #27
    2c14:	e51f12a4 	ldr	r1, [pc, #-676]	; 2978 <zlib_inflate+0xfec>
    2c18:	e1a03002 	mov	r3, r2
    2c1c:	e08f1001 	add	r1, pc, r1
    2c20:	e58c1018 	str	r1, [ip, #24]
    2c24:	e5872000 	str	r2, [r7]
    2c28:	eafffb83 	b	1a3c <zlib_inflate+0xb0>
    2c2c:	e200000f 	and	r0, r0, #15
    2c30:	e3a03015 	mov	r3, #21
    2c34:	e587c040 	str	ip, [r7, #64]	; 0x40
    2c38:	e5870044 	str	r0, [r7, #68]	; 0x44
    2c3c:	e5873000 	str	r3, [r7]
    2c40:	eafffc6e 	b	1e00 <zlib_inflate+0x474>
    2c44:	e1540001 	cmp	r4, r1
    2c48:	2a00000c 	bcs	2c80 <zlib_inflate+0x12f4>
    2c4c:	e3550000 	cmp	r5, #0
    2c50:	0affffd4 	beq	2ba8 <zlib_inflate+0x121c>
    2c54:	e1a0300a 	mov	r3, sl
    2c58:	ea000001 	b	2c64 <zlib_inflate+0x12d8>
    2c5c:	e3550000 	cmp	r5, #0
    2c60:	0affffd0 	beq	2ba8 <zlib_inflate+0x121c>
    2c64:	e4d30001 	ldrb	r0, [r3], #1
    2c68:	e2455001 	sub	r5, r5, #1
    2c6c:	e0866410 	add	r6, r6, r0, lsl r4
    2c70:	e2844008 	add	r4, r4, #8
    2c74:	e1540001 	cmp	r4, r1
    2c78:	e1a0a003 	mov	sl, r3
    2c7c:	3afffff6 	bcc	2c5c <zlib_inflate+0x12d0>
    2c80:	e0873088 	add	r3, r7, r8, lsl #1
    2c84:	e1a06136 	lsr	r6, r6, r1
    2c88:	e2888001 	add	r8, r8, #1
    2c8c:	e0614004 	rsb	r4, r1, r4
    2c90:	e1c326bc 	strh	r2, [r3, #108]	; 0x6c
    2c94:	e5878064 	str	r8, [r7, #100]	; 0x64
    2c98:	eafffec5 	b	27b4 <zlib_inflate+0xe28>
    2c9c:	e59d8010 	ldr	r8, [sp, #16]
    2ca0:	e3a0101b 	mov	r1, #27
    2ca4:	e51f0330 	ldr	r0, [pc, #-816]	; 297c <zlib_inflate+0xff0>
    2ca8:	e1a03001 	mov	r3, r1
    2cac:	e08f0000 	add	r0, pc, r0
    2cb0:	e5880018 	str	r0, [r8, #24]
    2cb4:	e5871000 	str	r1, [r7]
    2cb8:	eafffbcd 	b	1bf4 <zlib_inflate+0x268>
    2cbc:	e59d2014 	ldr	r2, [sp, #20]
    2cc0:	e3a03000 	mov	r3, #0
    2cc4:	e59d8010 	ldr	r8, [sp, #16]
    2cc8:	e2722001 	rsbs	r2, r2, #1
    2ccc:	e58d301c 	str	r3, [sp, #28]
    2cd0:	33a02000 	movcc	r2, #0
    2cd4:	e58d2010 	str	r2, [sp, #16]
    2cd8:	eafffdfc 	b	24d0 <zlib_inflate+0xb44>
    2cdc:	e59d802c 	ldr	r8, [sp, #44]	; 0x2c
    2ce0:	e3a0201b 	mov	r2, #27
    2ce4:	e59dc010 	ldr	ip, [sp, #16]
    2ce8:	e1a03002 	mov	r3, r2
    2cec:	e58c8018 	str	r8, [ip, #24]
    2cf0:	e5872000 	str	r2, [r7]
    2cf4:	eafffb50 	b	1a3c <zlib_inflate+0xb0>
    2cf8:	e59d8010 	ldr	r8, [sp, #16]
    2cfc:	e1a0100b 	mov	r1, fp
    2d00:	e59dc024 	ldr	ip, [sp, #36]	; 0x24
    2d04:	e588a000 	str	sl, [r8]
    2d08:	e1a00008 	mov	r0, r8
    2d0c:	e588c00c 	str	ip, [r8, #12]
    2d10:	e59dc00c 	ldr	ip, [sp, #12]
    2d14:	e5885004 	str	r5, [r8, #4]
    2d18:	e588c010 	str	ip, [r8, #16]
    2d1c:	e5876034 	str	r6, [r7, #52]	; 0x34
    2d20:	e5874038 	str	r4, [r7, #56]	; 0x38
    2d24:	ebfff934 	bl	11fc <inflate_fast>
    2d28:	e598800c 	ldr	r8, [r8, #12]
    2d2c:	e59dc010 	ldr	ip, [sp, #16]
    2d30:	e5976034 	ldr	r6, [r7, #52]	; 0x34
    2d34:	e58d8024 	str	r8, [sp, #36]	; 0x24
    2d38:	e59cc010 	ldr	ip, [ip, #16]
    2d3c:	e59d8010 	ldr	r8, [sp, #16]
    2d40:	e5974038 	ldr	r4, [r7, #56]	; 0x38
    2d44:	e58dc00c 	str	ip, [sp, #12]
    2d48:	e598a000 	ldr	sl, [r8]
    2d4c:	e5985004 	ldr	r5, [r8, #4]
    2d50:	e5973000 	ldr	r3, [r7]
    2d54:	eafffb38 	b	1a3c <zlib_inflate+0xb0>
    2d58:	e59dc014 	ldr	ip, [sp, #20]
    2d5c:	e59d0020 	ldr	r0, [sp, #32]
    2d60:	e27cc001 	rsbs	ip, ip, #1
    2d64:	e59d8010 	ldr	r8, [sp, #16]
    2d68:	33a0c000 	movcc	ip, #0
    2d6c:	e58dc010 	str	ip, [sp, #16]
    2d70:	e3500002 	cmp	r0, #2
    2d74:	13a0c000 	movne	ip, #0
    2d78:	020cc001 	andeq	ip, ip, #1
    2d7c:	e58dc01c 	str	ip, [sp, #28]
    2d80:	eafffdd2 	b	24d0 <zlib_inflate+0xb44>
    2d84:	e59db044 	ldr	fp, [sp, #68]	; 0x44
    2d88:	e59d7048 	ldr	r7, [sp, #72]	; 0x48
    2d8c:	eaffff85 	b	2ba8 <zlib_inflate+0x121c>
    2d90:	e3e0c001 	mvn	ip, #1
    2d94:	e58dc014 	str	ip, [sp, #20]
    2d98:	eafffc67 	b	1f3c <zlib_inflate+0x5b0>
    2d9c:	e1a06136 	lsr	r6, r6, r1
    2da0:	e0614004 	rsb	r4, r1, r4
    2da4:	e587203c 	str	r2, [r7, #60]	; 0x3c
    2da8:	e3a03017 	mov	r3, #23
    2dac:	e5873000 	str	r3, [r7]
    2db0:	eafffb21 	b	1a3c <zlib_inflate+0xb0>
    2db4:	e206200f 	and	r2, r6, #15
    2db8:	e3520008 	cmp	r2, #8
    2dbc:	0a000075 	beq	2f98 <zlib_inflate+0x160c>
    2dc0:	e59dc010 	ldr	ip, [sp, #16]
    2dc4:	e3a0201b 	mov	r2, #27
    2dc8:	e51f1450 	ldr	r1, [pc, #-1104]	; 2980 <zlib_inflate+0xff4>
    2dcc:	e1a03002 	mov	r3, r2
    2dd0:	e08f1001 	add	r1, pc, r1
    2dd4:	e58c1018 	str	r1, [ip, #24]
    2dd8:	e5872000 	str	r2, [r7]
    2ddc:	eafffb16 	b	1a3c <zlib_inflate+0xb0>
    2de0:	e3a04000 	mov	r4, #0
    2de4:	e3a0200e 	mov	r2, #14
    2de8:	e1a06004 	mov	r6, r4
    2dec:	e587303c 	str	r3, [r7, #60]	; 0x3c
    2df0:	e5872000 	str	r2, [r7]
    2df4:	eafffc74 	b	1fcc <zlib_inflate+0x640>
    2df8:	e1a06136 	lsr	r6, r6, r1
    2dfc:	e0614004 	rsb	r4, r1, r4
    2e00:	e587203c 	str	r2, [r7, #60]	; 0x3c
    2e04:	eaffff23 	b	2a98 <zlib_inflate+0x110c>
    2e08:	e2812002 	add	r2, r1, #2
    2e0c:	e1540002 	cmp	r4, r2
    2e10:	2a00000c 	bcs	2e48 <zlib_inflate+0x14bc>
    2e14:	e3550000 	cmp	r5, #0
    2e18:	0affff62 	beq	2ba8 <zlib_inflate+0x121c>
    2e1c:	e1a0300a 	mov	r3, sl
    2e20:	ea000001 	b	2e2c <zlib_inflate+0x14a0>
    2e24:	e3550000 	cmp	r5, #0
    2e28:	0affff5e 	beq	2ba8 <zlib_inflate+0x121c>
    2e2c:	e4d30001 	ldrb	r0, [r3], #1
    2e30:	e2455001 	sub	r5, r5, #1
    2e34:	e0866410 	add	r6, r6, r0, lsl r4
    2e38:	e2844008 	add	r4, r4, #8
    2e3c:	e1540002 	cmp	r4, r2
    2e40:	e1a0a003 	mov	sl, r3
    2e44:	3afffff6 	bcc	2e24 <zlib_inflate+0x1498>
    2e48:	e3580000 	cmp	r8, #0
    2e4c:	e1a06136 	lsr	r6, r6, r1
    2e50:	e0614004 	rsb	r4, r1, r4
    2e54:	0a0000a8 	beq	30fc <zlib_inflate+0x1770>
    2e58:	e0873088 	add	r3, r7, r8, lsl #1
    2e5c:	e2061003 	and	r1, r6, #3
    2e60:	e2811003 	add	r1, r1, #3
    2e64:	e1a06126 	lsr	r6, r6, #2
    2e68:	e1d306ba 	ldrh	r0, [r3, #106]	; 0x6a
    2e6c:	e2444002 	sub	r4, r4, #2
    2e70:	eafffe8c 	b	28a8 <zlib_inflate+0xf1c>
    2e74:	e2812003 	add	r2, r1, #3
    2e78:	e1540002 	cmp	r4, r2
    2e7c:	2a00000c 	bcs	2eb4 <zlib_inflate+0x1528>
    2e80:	e3550000 	cmp	r5, #0
    2e84:	0affff47 	beq	2ba8 <zlib_inflate+0x121c>
    2e88:	e1a0300a 	mov	r3, sl
    2e8c:	ea000001 	b	2e98 <zlib_inflate+0x150c>
    2e90:	e3550000 	cmp	r5, #0
    2e94:	0affff43 	beq	2ba8 <zlib_inflate+0x121c>
    2e98:	e4d30001 	ldrb	r0, [r3], #1
    2e9c:	e2455001 	sub	r5, r5, #1
    2ea0:	e0866410 	add	r6, r6, r0, lsl r4
    2ea4:	e2844008 	add	r4, r4, #8
    2ea8:	e1540002 	cmp	r4, r2
    2eac:	e1a0a003 	mov	sl, r3
    2eb0:	3afffff6 	bcc	2e90 <zlib_inflate+0x1504>
    2eb4:	e1a06136 	lsr	r6, r6, r1
    2eb8:	e30f3ffd 	movw	r3, #65533	; 0xfffd
    2ebc:	e34f3fff 	movt	r3, #65535	; 0xffff
    2ec0:	e2062007 	and	r2, r6, #7
    2ec4:	e0613003 	rsb	r3, r1, r3
    2ec8:	e1a061a6 	lsr	r6, r6, #3
    2ecc:	e2821003 	add	r1, r2, #3
    2ed0:	e0844003 	add	r4, r4, r3
    2ed4:	e3a00000 	mov	r0, #0
    2ed8:	eafffe72 	b	28a8 <zlib_inflate+0xf1c>
    2edc:	e5973000 	ldr	r3, [r7]
    2ee0:	e353001b 	cmp	r3, #27
    2ee4:	0afffad4 	beq	1a3c <zlib_inflate+0xb0>
    2ee8:	e2878068 	add	r8, r7, #104	; 0x68
    2eec:	e2873e52 	add	r3, r7, #1312	; 0x520
    2ef0:	e283300c 	add	r3, r3, #12
    2ef4:	e3a00001 	mov	r0, #1
    2ef8:	e5873068 	str	r3, [r7, #104]	; 0x68
    2efc:	e287106c 	add	r1, r7, #108	; 0x6c
    2f00:	e5873048 	str	r3, [r7, #72]	; 0x48
    2f04:	e3a03009 	mov	r3, #9
    2f08:	e59d2038 	ldr	r2, [sp, #56]	; 0x38
    2f0c:	e287c050 	add	ip, r7, #80	; 0x50
    2f10:	e5873050 	str	r3, [r7, #80]	; 0x50
    2f14:	e1a03008 	mov	r3, r8
    2f18:	e2879fbb 	add	r9, r7, #748	; 0x2ec
    2f1c:	e58dc000 	str	ip, [sp]
    2f20:	e58d9004 	str	r9, [sp, #4]
    2f24:	ebfff753 	bl	c78 <zlib_inflate_table>
    2f28:	e3500000 	cmp	r0, #0
    2f2c:	e58d0014 	str	r0, [sp, #20]
    2f30:	0a000037 	beq	3014 <zlib_inflate+0x1688>
    2f34:	e59d8010 	ldr	r8, [sp, #16]
    2f38:	e3a0201b 	mov	r2, #27
    2f3c:	e51f15c0 	ldr	r1, [pc, #-1472]	; 2984 <zlib_inflate+0xff8>
    2f40:	e1a03002 	mov	r3, r2
    2f44:	e08f1001 	add	r1, pc, r1
    2f48:	e5881018 	str	r1, [r8, #24]
    2f4c:	e5872000 	str	r2, [r7]
    2f50:	eafffab9 	b	1a3c <zlib_inflate+0xb0>
    2f54:	e59d8010 	ldr	r8, [sp, #16]
    2f58:	e3a03002 	mov	r3, #2
    2f5c:	e59dc024 	ldr	ip, [sp, #36]	; 0x24
    2f60:	e58d3014 	str	r3, [sp, #20]
    2f64:	e588a000 	str	sl, [r8]
    2f68:	e588c00c 	str	ip, [r8, #12]
    2f6c:	e59dc00c 	ldr	ip, [sp, #12]
    2f70:	e5885004 	str	r5, [r8, #4]
    2f74:	e588c010 	str	ip, [r8, #16]
    2f78:	e5876034 	str	r6, [r7, #52]	; 0x34
    2f7c:	e5874038 	str	r4, [r7, #56]	; 0x38
    2f80:	eafffbed 	b	1f3c <zlib_inflate+0x5b0>
    2f84:	e20cc00f 	and	ip, ip, #15
    2f88:	e3a03013 	mov	r3, #19
    2f8c:	e587c044 	str	ip, [r7, #68]	; 0x44
    2f90:	e5873000 	str	r3, [r7]
    2f94:	eafffb20 	b	1c1c <zlib_inflate+0x290>
    2f98:	e1a06226 	lsr	r6, r6, #4
    2f9c:	e5972020 	ldr	r2, [r7, #32]
    2fa0:	e206100f 	and	r1, r6, #15
    2fa4:	e2811008 	add	r1, r1, #8
    2fa8:	e1510002 	cmp	r1, r2
    2fac:	9a000034 	bls	3084 <zlib_inflate+0x16f8>
    2fb0:	e59d8010 	ldr	r8, [sp, #16]
    2fb4:	e3a0201b 	mov	r2, #27
    2fb8:	e51f1638 	ldr	r1, [pc, #-1592]	; 2988 <zlib_inflate+0xffc>
    2fbc:	e2444004 	sub	r4, r4, #4
    2fc0:	e1a03002 	mov	r3, r2
    2fc4:	e08f1001 	add	r1, pc, r1
    2fc8:	e5881018 	str	r1, [r8, #24]
    2fcc:	e5872000 	str	r2, [r7]
    2fd0:	eafffa99 	b	1a3c <zlib_inflate+0xb0>
    2fd4:	e59d3014 	ldr	r3, [sp, #20]
    2fd8:	e59dc020 	ldr	ip, [sp, #32]
    2fdc:	e2733001 	rsbs	r3, r3, #1
    2fe0:	e59d8010 	ldr	r8, [sp, #16]
    2fe4:	33a03000 	movcc	r3, #0
    2fe8:	e58d3010 	str	r3, [sp, #16]
    2fec:	e35c0002 	cmp	ip, #2
    2ff0:	13a03000 	movne	r3, #0
    2ff4:	02033001 	andeq	r3, r3, #1
    2ff8:	e58d301c 	str	r3, [sp, #28]
    2ffc:	eafffd33 	b	24d0 <zlib_inflate+0xb44>
    3000:	e59d8014 	ldr	r8, [sp, #20]
    3004:	e3a03011 	mov	r3, #17
    3008:	e5873000 	str	r3, [r7]
    300c:	e5878064 	str	r8, [r7, #100]	; 0x64
    3010:	eafffde3 	b	27a4 <zlib_inflate+0xe18>
    3014:	e597105c 	ldr	r1, [r7, #92]	; 0x5c
    3018:	e1a03008 	mov	r3, r8
    301c:	e597c060 	ldr	ip, [r7, #96]	; 0x60
    3020:	e3a02006 	mov	r2, #6
    3024:	e597e068 	ldr	lr, [r7, #104]	; 0x68
    3028:	e3a00002 	mov	r0, #2
    302c:	e0871081 	add	r1, r7, r1, lsl #1
    3030:	e5872054 	str	r2, [r7, #84]	; 0x54
    3034:	e281106c 	add	r1, r1, #108	; 0x6c
    3038:	e1a0200c 	mov	r2, ip
    303c:	e587e04c 	str	lr, [r7, #76]	; 0x4c
    3040:	e287c054 	add	ip, r7, #84	; 0x54
    3044:	e58d9004 	str	r9, [sp, #4]
    3048:	e58dc000 	str	ip, [sp]
    304c:	ebfff709 	bl	c78 <zlib_inflate_table>
    3050:	e3500000 	cmp	r0, #0
    3054:	e58d0014 	str	r0, [sp, #20]
    3058:	03a03012 	moveq	r3, #18
    305c:	05873000 	streq	r3, [r7]
    3060:	0afffe26 	beq	2900 <zlib_inflate+0xf74>
    3064:	e59dc010 	ldr	ip, [sp, #16]
    3068:	e3a0201b 	mov	r2, #27
    306c:	e51f16e8 	ldr	r1, [pc, #-1768]	; 298c <zlib_inflate+0x1000>
    3070:	e1a03002 	mov	r3, r2
    3074:	e08f1001 	add	r1, pc, r1
    3078:	e58c1018 	str	r1, [ip, #24]
    307c:	e5872000 	str	r2, [r7]
    3080:	eafffa6d 	b	1a3c <zlib_inflate+0xb0>
    3084:	e59dc010 	ldr	ip, [sp, #16]
    3088:	e3160c02 	tst	r6, #512	; 0x200
    308c:	e3a02001 	mov	r2, #1
    3090:	e1a04003 	mov	r4, r3
    3094:	e1a01112 	lsl	r1, r2, r1
    3098:	e5872018 	str	r2, [r7, #24]
    309c:	03a0300b 	moveq	r3, #11
    30a0:	13a03009 	movne	r3, #9
    30a4:	e5871014 	str	r1, [r7, #20]
    30a8:	e1a06004 	mov	r6, r4
    30ac:	e58c2028 	str	r2, [ip, #40]	; 0x28
    30b0:	e5873000 	str	r3, [r7]
    30b4:	eafffa60 	b	1a3c <zlib_inflate+0xb0>
    30b8:	e59d8010 	ldr	r8, [sp, #16]
    30bc:	e3a02000 	mov	r2, #0
    30c0:	e3a0301a 	mov	r3, #26
    30c4:	e58d201c 	str	r2, [sp, #28]
    30c8:	e5873000 	str	r3, [r7]
    30cc:	e3a03001 	mov	r3, #1
    30d0:	e58d2010 	str	r2, [sp, #16]
    30d4:	e58d3014 	str	r3, [sp, #20]
    30d8:	eafffcfc 	b	24d0 <zlib_inflate+0xb44>
    30dc:	e59d8010 	ldr	r8, [sp, #16]
    30e0:	e51f3758 	ldr	r3, [pc, #-1880]	; 2990 <zlib_inflate+0x1004>
    30e4:	e08f3003 	add	r3, pc, r3
    30e8:	e5883018 	str	r3, [r8, #24]
    30ec:	e3a0301b 	mov	r3, #27
    30f0:	e5873000 	str	r3, [r7]
    30f4:	e3a0301b 	mov	r3, #27
    30f8:	eafffa4f 	b	1a3c <zlib_inflate+0xb0>
    30fc:	e59d8010 	ldr	r8, [sp, #16]
    3100:	e51f3774 	ldr	r3, [pc, #-1908]	; 2994 <zlib_inflate+0x1008>
    3104:	e08f3003 	add	r3, pc, r3
    3108:	e5883018 	str	r3, [r8, #24]
    310c:	e3a0301b 	mov	r3, #27
    3110:	e5873000 	str	r3, [r7]
    3114:	eafffff6 	b	30f4 <zlib_inflate+0x1768>
    3118:	e3a04000 	mov	r4, #0
    311c:	e59d8010 	ldr	r8, [sp, #16]
    3120:	e59db00c 	ldr	fp, [sp, #12]
    3124:	e1a06004 	mov	r6, r4
    3128:	eaffffe3 	b	30bc <zlib_inflate+0x1730>

0000312c <zlib_inflateEnd>:
    312c:	e3500000 	cmp	r0, #0
    3130:	0a000004 	beq	3148 <zlib_inflateEnd+0x1c>
    3134:	e590301c 	ldr	r3, [r0, #28]
    3138:	e3530000 	cmp	r3, #0
    313c:	13a00000 	movne	r0, #0
    3140:	03e00001 	mvneq	r0, #1
    3144:	e12fff1e 	bx	lr
    3148:	e3e00001 	mvn	r0, #1
    314c:	e12fff1e 	bx	lr

00003150 <zlib_inflateIncomp>:
    3150:	e92d4ff0 	push	{r4, r5, r6, r7, r8, r9, sl, fp, lr}
    3154:	e24dd00c 	sub	sp, sp, #12
    3158:	e590201c 	ldr	r2, [r0, #28]
    315c:	e1a04000 	mov	r4, r0
    3160:	e590500c 	ldr	r5, [r0, #12]
    3164:	e5906010 	ldr	r6, [r0, #16]
    3168:	e5923000 	ldr	r3, [r2]
    316c:	e58d2004 	str	r2, [sp, #4]
    3170:	e3530000 	cmp	r3, #0
    3174:	1353000b 	cmpne	r3, #11
    3178:	03a03000 	moveq	r3, #0
    317c:	13a03001 	movne	r3, #1
    3180:	13e00002 	mvnne	r0, #2
    3184:	1a000081 	bne	3390 <zlib_inflateIncomp+0x240>
    3188:	e5941004 	ldr	r1, [r4, #4]
    318c:	e5942000 	ldr	r2, [r4]
    3190:	e5843010 	str	r3, [r4, #16]
    3194:	e0823001 	add	r3, r2, r1
    3198:	e584300c 	str	r3, [r4, #12]
    319c:	ebfff683 	bl	bb0 <zlib_updatewindow>
    31a0:	e5948000 	ldr	r8, [r4]
    31a4:	e59d3004 	ldr	r3, [sp, #4]
    31a8:	e3580000 	cmp	r8, #0
    31ac:	e5846010 	str	r6, [r4, #16]
    31b0:	e584500c 	str	r5, [r4, #12]
    31b4:	e594a004 	ldr	sl, [r4, #4]
    31b8:	e5936018 	ldr	r6, [r3, #24]
    31bc:	03a06001 	moveq	r6, #1
    31c0:	0a00005e 	beq	3340 <zlib_inflateIncomp+0x1f0>
    31c4:	e35a0000 	cmp	sl, #0
    31c8:	e6ffb076 	uxth	fp, r6
    31cc:	e1a06826 	lsr	r6, r6, #16
    31d0:	0a000059 	beq	333c <zlib_inflateIncomp+0x1ec>
    31d4:	e3089071 	movw	r9, #32881	; 0x8071
    31d8:	e3489007 	movt	r9, #32775	; 0x8007
    31dc:	e30175b0 	movw	r7, #5552	; 0x15b0
    31e0:	e15a0007 	cmp	sl, r7
    31e4:	31a0700a 	movcc	r7, sl
    31e8:	e357000f 	cmp	r7, #15
    31ec:	e067a00a 	rsb	sl, r7, sl
    31f0:	e1a00007 	mov	r0, r7
    31f4:	da00003a 	ble	32e4 <zlib_inflateIncomp+0x194>
    31f8:	e1a02007 	mov	r2, r7
    31fc:	e1a03008 	mov	r3, r8
    3200:	e5d31000 	ldrb	r1, [r3]
    3204:	e2422010 	sub	r2, r2, #16
    3208:	e5d3c001 	ldrb	ip, [r3, #1]
    320c:	e352000f 	cmp	r2, #15
    3210:	e081b00b 	add	fp, r1, fp
    3214:	e5d35002 	ldrb	r5, [r3, #2]
    3218:	e08b6006 	add	r6, fp, r6
    321c:	e08bb00c 	add	fp, fp, ip
    3220:	e5d3c003 	ldrb	ip, [r3, #3]
    3224:	e08b5005 	add	r5, fp, r5
    3228:	e5d30004 	ldrb	r0, [r3, #4]
    322c:	e086600b 	add	r6, r6, fp
    3230:	e085c00c 	add	ip, r5, ip
    3234:	e5d31005 	ldrb	r1, [r3, #5]
    3238:	e0866005 	add	r6, r6, r5
    323c:	e08c0000 	add	r0, ip, r0
    3240:	e5d3b006 	ldrb	fp, [r3, #6]
    3244:	e086600c 	add	r6, r6, ip
    3248:	e0801001 	add	r1, r0, r1
    324c:	e5d3c007 	ldrb	ip, [r3, #7]
    3250:	e0866000 	add	r6, r6, r0
    3254:	e081b00b 	add	fp, r1, fp
    3258:	e5d30008 	ldrb	r0, [r3, #8]
    325c:	e0866001 	add	r6, r6, r1
    3260:	e08bc00c 	add	ip, fp, ip
    3264:	e5d31009 	ldrb	r1, [r3, #9]
    3268:	e086600b 	add	r6, r6, fp
    326c:	e08c0000 	add	r0, ip, r0
    3270:	e5d3500a 	ldrb	r5, [r3, #10]
    3274:	e086600c 	add	r6, r6, ip
    3278:	e0801001 	add	r1, r0, r1
    327c:	e5d3c00b 	ldrb	ip, [r3, #11]
    3280:	e0866000 	add	r6, r6, r0
    3284:	e0815005 	add	r5, r1, r5
    3288:	e0866001 	add	r6, r6, r1
    328c:	e5d3000c 	ldrb	r0, [r3, #12]
    3290:	e085c00c 	add	ip, r5, ip
    3294:	e5d3100d 	ldrb	r1, [r3, #13]
    3298:	e0865005 	add	r5, r6, r5
    329c:	e08c0000 	add	r0, ip, r0
    32a0:	e5d3600e 	ldrb	r6, [r3, #14]
    32a4:	e085500c 	add	r5, r5, ip
    32a8:	e0801001 	add	r1, r0, r1
    32ac:	e5d3b00f 	ldrb	fp, [r3, #15]
    32b0:	e0855000 	add	r5, r5, r0
    32b4:	e0816006 	add	r6, r1, r6
    32b8:	e0855001 	add	r5, r5, r1
    32bc:	e086b00b 	add	fp, r6, fp
    32c0:	e0856006 	add	r6, r5, r6
    32c4:	e2833010 	add	r3, r3, #16
    32c8:	e086600b 	add	r6, r6, fp
    32cc:	caffffcb 	bgt	3200 <zlib_inflateIncomp+0xb0>
    32d0:	e2477010 	sub	r7, r7, #16
    32d4:	e1a03227 	lsr	r3, r7, #4
    32d8:	e2832001 	add	r2, r3, #1
    32dc:	e0470203 	sub	r0, r7, r3, lsl #4
    32e0:	e0888202 	add	r8, r8, r2, lsl #4
    32e4:	e3500000 	cmp	r0, #0
    32e8:	0a000007 	beq	330c <zlib_inflateIncomp+0x1bc>
    32ec:	e1a03000 	mov	r3, r0
    32f0:	e1a02008 	mov	r2, r8
    32f4:	e4d21001 	ldrb	r1, [r2], #1
    32f8:	e2533001 	subs	r3, r3, #1
    32fc:	e08bb001 	add	fp, fp, r1
    3300:	e086600b 	add	r6, r6, fp
    3304:	1afffffa 	bne	32f4 <zlib_inflateIncomp+0x1a4>
    3308:	e0888000 	add	r8, r8, r0
    330c:	e082cb99 	umull	ip, r2, r9, fp
    3310:	e35a0000 	cmp	sl, #0
    3314:	e0831699 	umull	r1, r3, r9, r6
    3318:	e1a027a2 	lsr	r2, r2, #15
    331c:	e0621602 	rsb	r1, r2, r2, lsl #12
    3320:	e1a037a3 	lsr	r3, r3, #15
    3324:	e0822201 	add	r2, r2, r1, lsl #4
    3328:	e0631603 	rsb	r1, r3, r3, lsl #12
    332c:	e062b00b 	rsb	fp, r2, fp
    3330:	e0833201 	add	r3, r3, r1, lsl #4
    3334:	e0636006 	rsb	r6, r3, r6
    3338:	1affffa7 	bne	31dc <zlib_inflateIncomp+0x8c>
    333c:	e18b6806 	orr	r6, fp, r6, lsl #16
    3340:	e59d2004 	ldr	r2, [sp, #4]
    3344:	e5826018 	str	r6, [r2, #24]
    3348:	e3a02000 	mov	r2, #0
    334c:	e5943004 	ldr	r3, [r4, #4]
    3350:	e1a00002 	mov	r0, r2
    3354:	e594c008 	ldr	ip, [r4, #8]
    3358:	e5945014 	ldr	r5, [r4, #20]
    335c:	e08cc003 	add	ip, ip, r3
    3360:	e584c008 	str	ip, [r4, #8]
    3364:	e59dc004 	ldr	ip, [sp, #4]
    3368:	e0855003 	add	r5, r5, r3
    336c:	e5941000 	ldr	r1, [r4]
    3370:	e5846028 	str	r6, [r4, #40]	; 0x28
    3374:	e0811003 	add	r1, r1, r3
    3378:	e5845014 	str	r5, [r4, #20]
    337c:	e5841000 	str	r1, [r4]
    3380:	e59c101c 	ldr	r1, [ip, #28]
    3384:	e0813003 	add	r3, r1, r3
    3388:	e58c301c 	str	r3, [ip, #28]
    338c:	e5842004 	str	r2, [r4, #4]
    3390:	e28dd00c 	add	sp, sp, #12
    3394:	e8bd8ff0 	pop	{r4, r5, r6, r7, r8, r9, sl, fp, pc}

00003398 <do_decompress>:
    3398:	e92d47f0 	push	{r4, r5, r6, r7, r8, r9, sl, lr}
    339c:	e2526000 	subs	r6, r2, #0
    33a0:	e59f42bc 	ldr	r4, [pc, #700]	; 3664 <do_decompress+0x2cc>
    33a4:	e1a05000 	mov	r5, r0
    33a8:	e1a07001 	mov	r7, r1
    33ac:	e1a0a003 	mov	sl, r3
    33b0:	e08f4004 	add	r4, pc, r4
    33b4:	0a000099 	beq	3620 <do_decompress+0x288>
    33b8:	e3500000 	cmp	r0, #0
    33bc:	11a09000 	movne	r9, r0
    33c0:	0a00007f 	beq	35c4 <do_decompress+0x22c>
    33c4:	e3a00030 	mov	r0, #48	; 0x30
    33c8:	ebfff5d2 	bl	b18 <malloc>
    33cc:	e2508000 	subs	r8, r0, #0
    33d0:	0a000085 	beq	35ec <do_decompress+0x254>
    33d4:	e302052c 	movw	r0, #9516	; 0x252c
    33d8:	ebfff5ce 	bl	b18 <malloc>
    33dc:	e3500000 	cmp	r0, #0
    33e0:	e5880020 	str	r0, [r8, #32]
    33e4:	0a000085 	beq	3600 <do_decompress+0x268>
    33e8:	e3570000 	cmp	r7, #0
    33ec:	0a00006f 	beq	35b0 <do_decompress+0x218>
    33f0:	e3570009 	cmp	r7, #9
    33f4:	ca000030 	bgt	34bc <do_decompress+0x124>
    33f8:	e59f0268 	ldr	r0, [pc, #616]	; 3668 <do_decompress+0x2d0>
    33fc:	e3e06000 	mvn	r6, #0
    3400:	e08f0000 	add	r0, pc, r0
    3404:	e12fff3a 	blx	sl
    3408:	e59f325c 	ldr	r3, [pc, #604]	; 366c <do_decompress+0x2d4>
    340c:	e7943003 	ldr	r3, [r4, r3]
    3410:	e5932000 	ldr	r2, [r3]
    3414:	e2422001 	sub	r2, r2, #1
    3418:	e5832000 	str	r2, [r3]
    341c:	e3520000 	cmp	r2, #0
    3420:	0a00000d 	beq	345c <do_decompress+0xc4>
    3424:	e2422001 	sub	r2, r2, #1
    3428:	e5832000 	str	r2, [r3]
    342c:	e3520000 	cmp	r2, #0
    3430:	1a000005 	bne	344c <do_decompress+0xb4>
    3434:	e59f3234 	ldr	r3, [pc, #564]	; 3670 <do_decompress+0x2d8>
    3438:	e7942003 	ldr	r2, [r4, r3]
    343c:	e59f3230 	ldr	r3, [pc, #560]	; 3674 <do_decompress+0x2dc>
    3440:	e5922000 	ldr	r2, [r2]
    3444:	e7943003 	ldr	r3, [r4, r3]
    3448:	e5832000 	str	r2, [r3]
    344c:	e3550000 	cmp	r5, #0
    3450:	0a00000b 	beq	3484 <do_decompress+0xec>
    3454:	e1a00006 	mov	r0, r6
    3458:	e8bd87f0 	pop	{r4, r5, r6, r7, r8, r9, sl, pc}
    345c:	e59f220c 	ldr	r2, [pc, #524]	; 3670 <do_decompress+0x2d8>
    3460:	e3e00000 	mvn	r0, #0
    3464:	e3550000 	cmp	r5, #0
    3468:	e7941002 	ldr	r1, [r4, r2]
    346c:	e59f2200 	ldr	r2, [pc, #512]	; 3674 <do_decompress+0x2dc>
    3470:	e7942002 	ldr	r2, [r4, r2]
    3474:	e5830000 	str	r0, [r3]
    3478:	e5913000 	ldr	r3, [r1]
    347c:	e5823000 	str	r3, [r2]
    3480:	1afffff3 	bne	3454 <do_decompress+0xbc>
    3484:	e59f31e0 	ldr	r3, [pc, #480]	; 366c <do_decompress+0x2d4>
    3488:	e7942003 	ldr	r2, [r4, r3]
    348c:	e5923000 	ldr	r3, [r2]
    3490:	e2433001 	sub	r3, r3, #1
    3494:	e5823000 	str	r3, [r2]
    3498:	e3530000 	cmp	r3, #0
    349c:	1affffec 	bne	3454 <do_decompress+0xbc>
    34a0:	e59f31c8 	ldr	r3, [pc, #456]	; 3670 <do_decompress+0x2d8>
    34a4:	e7942003 	ldr	r2, [r4, r3]
    34a8:	e59f31c4 	ldr	r3, [pc, #452]	; 3674 <do_decompress+0x2dc>
    34ac:	e5922000 	ldr	r2, [r2]
    34b0:	e7943003 	ldr	r3, [r4, r3]
    34b4:	e5832000 	str	r2, [r3]
    34b8:	eaffffe5 	b	3454 <do_decompress+0xbc>
    34bc:	e5d93000 	ldrb	r3, [r9]
    34c0:	e353001f 	cmp	r3, #31
    34c4:	1affffcb 	bne	33f8 <do_decompress+0x60>
    34c8:	e5d93001 	ldrb	r3, [r9, #1]
    34cc:	e353008b 	cmp	r3, #139	; 0x8b
    34d0:	1affffc8 	bne	33f8 <do_decompress+0x60>
    34d4:	e5d93002 	ldrb	r3, [r9, #2]
    34d8:	e3530008 	cmp	r3, #8
    34dc:	1affffc5 	bne	33f8 <do_decompress+0x60>
    34e0:	e289300a 	add	r3, r9, #10
    34e4:	e247700a 	sub	r7, r7, #10
    34e8:	e8880088 	stm	r8, {r3, r7}
    34ec:	e5d93003 	ldrb	r3, [r9, #3]
    34f0:	e3130008 	tst	r3, #8
    34f4:	0a000008 	beq	351c <do_decompress+0x184>
    34f8:	e3570000 	cmp	r7, #0
    34fc:	e2477001 	sub	r7, r7, #1
    3500:	0a00004b 	beq	3634 <do_decompress+0x29c>
    3504:	e5983000 	ldr	r3, [r8]
    3508:	e5887004 	str	r7, [r8, #4]
    350c:	e4d32001 	ldrb	r2, [r3], #1
    3510:	e3520000 	cmp	r2, #0
    3514:	e5883000 	str	r3, [r8]
    3518:	1afffff6 	bne	34f8 <do_decompress+0x160>
    351c:	e588600c 	str	r6, [r8, #12]
    3520:	e1a00008 	mov	r0, r8
    3524:	e1e06006 	mvn	r6, r6
    3528:	e3e0100e 	mvn	r1, #14
    352c:	e5886010 	str	r6, [r8, #16]
    3530:	ebfff8fd 	bl	192c <zlib_inflateInit2>
    3534:	e5982020 	ldr	r2, [r8, #32]
    3538:	e3a03000 	mov	r3, #0
    353c:	e5823024 	str	r3, [r2, #36]	; 0x24
    3540:	e5982020 	ldr	r2, [r8, #32]
    3544:	e5823030 	str	r3, [r2, #48]	; 0x30
    3548:	e2506000 	subs	r6, r0, #0
    354c:	1a000014 	bne	35a4 <do_decompress+0x20c>
    3550:	e5983004 	ldr	r3, [r8, #4]
    3554:	e3a01901 	mov	r1, #16384	; 0x4000
    3558:	e1a00009 	mov	r0, r9
    355c:	e3530000 	cmp	r3, #0
    3560:	1a000004 	bne	3578 <do_decompress+0x1e0>
    3564:	ebfff58f 	bl	ba8 <nofill>
    3568:	e3500000 	cmp	r0, #0
    356c:	ba000035 	blt	3648 <do_decompress+0x2b0>
    3570:	e5889000 	str	r9, [r8]
    3574:	e5880004 	str	r0, [r8, #4]
    3578:	e1a00008 	mov	r0, r8
    357c:	e3a01000 	mov	r1, #0
    3580:	ebfff901 	bl	198c <zlib_inflate>
    3584:	e3500001 	cmp	r0, #1
    3588:	0a000005 	beq	35a4 <do_decompress+0x20c>
    358c:	e3500000 	cmp	r0, #0
    3590:	0affffee 	beq	3550 <do_decompress+0x1b8>
    3594:	e59f00dc 	ldr	r0, [pc, #220]	; 3678 <do_decompress+0x2e0>
    3598:	e3e06000 	mvn	r6, #0
    359c:	e08f0000 	add	r0, pc, r0
    35a0:	e12fff3a 	blx	sl
    35a4:	e1a00008 	mov	r0, r8
    35a8:	ebfffedf 	bl	312c <zlib_inflateEnd>
    35ac:	eaffff95 	b	3408 <do_decompress+0x70>
    35b0:	e1a00009 	mov	r0, r9
    35b4:	e3a01901 	mov	r1, #16384	; 0x4000
    35b8:	ebfff57a 	bl	ba8 <nofill>
    35bc:	e1a07000 	mov	r7, r0
    35c0:	eaffff8a 	b	33f0 <do_decompress+0x58>
    35c4:	e3a00901 	mov	r0, #16384	; 0x4000
    35c8:	ebfff552 	bl	b18 <malloc>
    35cc:	e2509000 	subs	r9, r0, #0
    35d0:	1a000021 	bne	365c <do_decompress+0x2c4>
    35d4:	e59f00a0 	ldr	r0, [pc, #160]	; 367c <do_decompress+0x2e4>
    35d8:	e3e06000 	mvn	r6, #0
    35dc:	e08f0000 	add	r0, pc, r0
    35e0:	e12fff3a 	blx	sl
    35e4:	e1a00006 	mov	r0, r6
    35e8:	e8bd87f0 	pop	{r4, r5, r6, r7, r8, r9, sl, pc}
    35ec:	e59f008c 	ldr	r0, [pc, #140]	; 3680 <do_decompress+0x2e8>
    35f0:	e3e06000 	mvn	r6, #0
    35f4:	e08f0000 	add	r0, pc, r0
    35f8:	e12fff3a 	blx	sl
    35fc:	eaffff92 	b	344c <do_decompress+0xb4>
    3600:	e59f007c 	ldr	r0, [pc, #124]	; 3684 <do_decompress+0x2ec>
    3604:	e3e06000 	mvn	r6, #0
    3608:	e08f0000 	add	r0, pc, r0
    360c:	e12fff3a 	blx	sl
    3610:	e59f3054 	ldr	r3, [pc, #84]	; 366c <do_decompress+0x2d4>
    3614:	e7943003 	ldr	r3, [r4, r3]
    3618:	e5932000 	ldr	r2, [r3]
    361c:	eaffff80 	b	3424 <do_decompress+0x8c>
    3620:	e59f0060 	ldr	r0, [pc, #96]	; 3688 <do_decompress+0x2f0>
    3624:	e3e06000 	mvn	r6, #0
    3628:	e08f0000 	add	r0, pc, r0
    362c:	e12fff33 	blx	r3
    3630:	eaffff87 	b	3454 <do_decompress+0xbc>
    3634:	e59f0050 	ldr	r0, [pc, #80]	; 368c <do_decompress+0x2f4>
    3638:	e3e06000 	mvn	r6, #0
    363c:	e08f0000 	add	r0, pc, r0
    3640:	e12fff3a 	blx	sl
    3644:	eaffff6f 	b	3408 <do_decompress+0x70>
    3648:	e59f0040 	ldr	r0, [pc, #64]	; 3690 <do_decompress+0x2f8>
    364c:	e3e06000 	mvn	r6, #0
    3650:	e08f0000 	add	r0, pc, r0
    3654:	e12fff3a 	blx	sl
    3658:	eaffffd1 	b	35a4 <do_decompress+0x20c>
    365c:	e1a07005 	mov	r7, r5
    3660:	eaffff57 	b	33c4 <do_decompress+0x2c>
    3664:	0028cac0 	.word	0x0028cac0
    3668:	000033a4 	.word	0x000033a4
    366c:	00000014 	.word	0x00000014
    3670:	0000002c 	.word	0x0000002c
    3674:	00000008 	.word	0x00000008
    3678:	00003234 	.word	0x00003234
    367c:	00003148 	.word	0x00003148
    3680:	0000315c 	.word	0x0000315c
    3684:	00003170 	.word	0x00003170
    3688:	000030cc 	.word	0x000030cc
    368c:	00003178 	.word	0x00003178
    3690:	00003174 	.word	0x00003174

00003694 <memcpy>:
    3694:	e92d4070 	push	{r4, r5, r6, lr}
    3698:	e1a041a2 	lsr	r4, r2, #3
    369c:	e1a0c001 	mov	ip, r1
    36a0:	e1a03000 	mov	r3, r0
    36a4:	e1a05004 	mov	r5, r4
    36a8:	ea000012 	b	36f8 <memcpy+0x64>
    36ac:	e5dc6000 	ldrb	r6, [ip]
    36b0:	e2455001 	sub	r5, r5, #1
    36b4:	e5c36000 	strb	r6, [r3]
    36b8:	e5dc6001 	ldrb	r6, [ip, #1]
    36bc:	e5c36001 	strb	r6, [r3, #1]
    36c0:	e5dc6002 	ldrb	r6, [ip, #2]
    36c4:	e5c36002 	strb	r6, [r3, #2]
    36c8:	e5dc6003 	ldrb	r6, [ip, #3]
    36cc:	e5c36003 	strb	r6, [r3, #3]
    36d0:	e5dc6004 	ldrb	r6, [ip, #4]
    36d4:	e5c36004 	strb	r6, [r3, #4]
    36d8:	e5dc6005 	ldrb	r6, [ip, #5]
    36dc:	e5c36005 	strb	r6, [r3, #5]
    36e0:	e5dc6006 	ldrb	r6, [ip, #6]
    36e4:	e5c36006 	strb	r6, [r3, #6]
    36e8:	e5dc6007 	ldrb	r6, [ip, #7]
    36ec:	e28cc008 	add	ip, ip, #8
    36f0:	e5c36007 	strb	r6, [r3, #7]
    36f4:	e2833008 	add	r3, r3, #8
    36f8:	e3550000 	cmp	r5, #0
    36fc:	caffffea 	bgt	36ac <memcpy+0x18>
    3700:	e1c44fc4 	bic	r4, r4, r4, asr #31
    3704:	e3120004 	tst	r2, #4
    3708:	e1a0c184 	lsl	ip, r4, #3
    370c:	e080300c 	add	r3, r0, ip
    3710:	e081c00c 	add	ip, r1, ip
    3714:	0a000009 	beq	3740 <memcpy+0xac>
    3718:	e7d11184 	ldrb	r1, [r1, r4, lsl #3]
    371c:	e7c01184 	strb	r1, [r0, r4, lsl #3]
    3720:	e5dc1001 	ldrb	r1, [ip, #1]
    3724:	e5c31001 	strb	r1, [r3, #1]
    3728:	e5dc1002 	ldrb	r1, [ip, #2]
    372c:	e5c31002 	strb	r1, [r3, #2]
    3730:	e5dc1003 	ldrb	r1, [ip, #3]
    3734:	e28cc004 	add	ip, ip, #4
    3738:	e5c31003 	strb	r1, [r3, #3]
    373c:	e2833004 	add	r3, r3, #4
    3740:	e3120002 	tst	r2, #2
    3744:	0a000005 	beq	3760 <memcpy+0xcc>
    3748:	e5dc1000 	ldrb	r1, [ip]
    374c:	e5c31000 	strb	r1, [r3]
    3750:	e5dc1001 	ldrb	r1, [ip, #1]
    3754:	e28cc002 	add	ip, ip, #2
    3758:	e5c31001 	strb	r1, [r3, #1]
    375c:	e2833002 	add	r3, r3, #2
    3760:	e3120001 	tst	r2, #1
    3764:	15dc2000 	ldrbne	r2, [ip]
    3768:	15c32000 	strbne	r2, [r3]
    376c:	e8bd8070 	pop	{r4, r5, r6, pc}

00003770 <memmove>:
    3770:	e1500001 	cmp	r0, r1
    3774:	e1a0c000 	mov	ip, r0
    3778:	e92d4010 	push	{r4, lr}
    377c:	e1a03002 	mov	r3, r2
    3780:	e1a04001 	mov	r4, r1
    3784:	0a000007 	beq	37a8 <memmove+0x38>
    3788:	2a000004 	bcs	37a0 <memmove+0x30>
    378c:	e8bd4010 	pop	{r4, lr}
    3790:	eaffffbf 	b	3694 <memcpy>
    3794:	e2433001 	sub	r3, r3, #1
    3798:	e7d42003 	ldrb	r2, [r4, r3]
    379c:	e7cc2003 	strb	r2, [ip, r3]
    37a0:	e3530000 	cmp	r3, #0
    37a4:	1afffffa 	bne	3794 <memmove+0x24>
    37a8:	e1a0000c 	mov	r0, ip
    37ac:	e8bd8010 	pop	{r4, pc}

000037b0 <strlen>:
    37b0:	e1a03000 	mov	r3, r0
    37b4:	e1a02003 	mov	r2, r3
    37b8:	e2833001 	add	r3, r3, #1
    37bc:	e5d21000 	ldrb	r1, [r2]
    37c0:	e3510000 	cmp	r1, #0
    37c4:	1afffffa 	bne	37b4 <strlen+0x4>
    37c8:	e0600002 	rsb	r0, r0, r2
    37cc:	e12fff1e 	bx	lr

000037d0 <memcmp>:
    37d0:	e0802002 	add	r2, r0, r2
    37d4:	e1a03000 	mov	r3, r0
    37d8:	ea000004 	b	37f0 <memcmp+0x20>
    37dc:	e5d0c000 	ldrb	ip, [r0]
    37e0:	e2833001 	add	r3, r3, #1
    37e4:	e4d10001 	ldrb	r0, [r1], #1
    37e8:	e05c0000 	subs	r0, ip, r0
    37ec:	112fff1e 	bxne	lr
    37f0:	e1530002 	cmp	r3, r2
    37f4:	e1a00003 	mov	r0, r3
    37f8:	3afffff7 	bcc	37dc <memcmp+0xc>
    37fc:	e3a00000 	mov	r0, #0
    3800:	e12fff1e 	bx	lr

00003804 <strcmp>:
    3804:	e1a03000 	mov	r3, r0
    3808:	e4d32001 	ldrb	r2, [r3], #1
    380c:	e4d10001 	ldrb	r0, [r1], #1
    3810:	e0520000 	subs	r0, r2, r0
    3814:	112fff1e 	bxne	lr
    3818:	e3520000 	cmp	r2, #0
    381c:	1afffff9 	bne	3808 <strcmp+0x4>
    3820:	e12fff1e 	bx	lr

00003824 <memchr>:
    3824:	e6ef1071 	uxtb	r1, r1
    3828:	ea000005 	b	3844 <memchr+0x20>
    382c:	e5d0c000 	ldrb	ip, [r0]
    3830:	e2803001 	add	r3, r0, #1
    3834:	e2422001 	sub	r2, r2, #1
    3838:	e15c0001 	cmp	ip, r1
    383c:	012fff1e 	bxeq	lr
    3840:	e1a00003 	mov	r0, r3
    3844:	e3520000 	cmp	r2, #0
    3848:	1afffff7 	bne	382c <memchr+0x8>
    384c:	e1a00002 	mov	r0, r2
    3850:	e12fff1e 	bx	lr

00003854 <strchr>:
    3854:	e1a03000 	mov	r3, r0
    3858:	e6ef1071 	uxtb	r1, r1
    385c:	ea000001 	b	3868 <strchr+0x14>
    3860:	e3520000 	cmp	r2, #0
    3864:	0a000005 	beq	3880 <strchr+0x2c>
    3868:	e5d32000 	ldrb	r2, [r3]
    386c:	e1a00003 	mov	r0, r3
    3870:	e2833001 	add	r3, r3, #1
    3874:	e1520001 	cmp	r2, r1
    3878:	1afffff8 	bne	3860 <strchr+0xc>
    387c:	e12fff1e 	bx	lr
    3880:	e1a00002 	mov	r0, r2
    3884:	e12fff1e 	bx	lr

00003888 <memset>:
    3888:	e3a03000 	mov	r3, #0
    388c:	ea000001 	b	3898 <memset+0x10>
    3890:	e7c01003 	strb	r1, [r0, r3]
    3894:	e2833001 	add	r3, r3, #1
    3898:	e1530002 	cmp	r3, r2
    389c:	1afffffb 	bne	3890 <memset+0x8>
    38a0:	e12fff1e 	bx	lr

000038a4 <__memzero>:
    38a4:	e1a02001 	mov	r2, r1
    38a8:	e3a01000 	mov	r1, #0
    38ac:	eafffff5 	b	3888 <memset>
	...

000038c0 <__hyp_stub_install>:
    38c0:	e10f4000 	mrs	r4, CPSR
    38c4:	e204401f 	and	r4, r4, #31
    38c8:	e1540004 	cmp	r4, r4
    38cc:	11a0f00e 	movne	pc, lr
    38d0:	e354001a 	cmp	r4, #26
    38d4:	11a0f00e 	movne	pc, lr
    38d8:	e28f7040 	add	r7, pc, #64	; 0x40
    38dc:	ee8c7f10 	mcr	15, 4, r7, cr12, cr0, {0}
    38e0:	e3a07000 	mov	r7, #0
    38e4:	ee817f11 	mcr	15, 4, r7, cr1, cr1, {0}
    38e8:	ee817f51 	mcr	15, 4, r7, cr1, cr1, {2}
    38ec:	ee817f71 	mcr	15, 4, r7, cr1, cr1, {3}
    38f0:	ee817f10 	mcr	15, 4, r7, cr1, cr0, {0}
    38f4:	ee917f31 	mrc	15, 4, r7, cr1, cr1, {1}
    38f8:	e207701f 	and	r7, r7, #31
    38fc:	ee817f31 	mcr	15, 4, r7, cr1, cr1, {1}
    3900:	e12fff1e 	bx	lr

00003904 <__hyp_stub_do_trap>:
    3904:	e3700001 	cmn	r0, #1
    3908:	0e9c0f10 	mrceq	15, 4, r0, cr12, cr0, {0}
    390c:	1e8c0f10 	mcrne	15, 4, r0, cr12, cr0, {0}
    3910:	e160006e 	.word	0xe160006e

00003914 <__hyp_get_vectors>:
    3914:	e3e00000 	mvn	r0, #0

00003918 <__hyp_set_vectors>:
    3918:	e1400070 	.word	0xe1400070
    391c:	e1a0f00e 	mov	pc, lr

00003920 <__hyp_stub_vectors>:
    3920:	eafffffe 	b	3920 <__hyp_stub_vectors>

00003924 <__hyp_stub_und>:
    3924:	eafffffe 	b	3924 <__hyp_stub_und>

00003928 <__hyp_stub_svc>:
    3928:	eafffffe 	b	3928 <__hyp_stub_svc>

0000392c <__hyp_stub_pabort>:
    392c:	eafffffe 	b	392c <__hyp_stub_pabort>

00003930 <__hyp_stub_dabort>:
    3930:	eafffffe 	b	3930 <__hyp_stub_dabort>

00003934 <__hyp_stub_trap>:
    3934:	eafffff2 	b	3904 <__hyp_stub_do_trap>

00003938 <__hyp_stub_irq>:
    3938:	eafffffe 	b	3938 <__hyp_stub_irq>

0000393c <__hyp_stub_fiq>:
    393c:	eafffffe 	b	393c <__hyp_stub_fiq>

00003940 <_fdt_packblocks>:
    3940:	e92d41f0 	push	{r4, r5, r6, r7, r8, lr}
    3944:	e1a04001 	mov	r4, r1
    3948:	e1a05000 	mov	r5, r0
    394c:	e2827028 	add	r7, r2, #40	; 0x28
    3950:	e1a06003 	mov	r6, r3
    3954:	e5901010 	ldr	r1, [r0, #16]
    3958:	e2840028 	add	r0, r4, #40	; 0x28
    395c:	e0878003 	add	r8, r7, r3
    3960:	e6bf1f31 	rev	r1, r1
    3964:	e0851001 	add	r1, r5, r1
    3968:	ebffff80 	bl	3770 <memmove>
    396c:	e3a0330a 	mov	r3, #671088640	; 0x28000000
    3970:	e1a02006 	mov	r2, r6
    3974:	e5843010 	str	r3, [r4, #16]
    3978:	e0840007 	add	r0, r4, r7
    397c:	e5951008 	ldr	r1, [r5, #8]
    3980:	e6bf1f31 	rev	r1, r1
    3984:	e0851001 	add	r1, r5, r1
    3988:	ebffff78 	bl	3770 <memmove>
    398c:	e0840008 	add	r0, r4, r8
    3990:	e6bf7f37 	rev	r7, r7
    3994:	e6bf6f36 	rev	r6, r6
    3998:	e5847008 	str	r7, [r4, #8]
    399c:	e5846024 	str	r6, [r4, #36]	; 0x24
    39a0:	e595100c 	ldr	r1, [r5, #12]
    39a4:	e5952020 	ldr	r2, [r5, #32]
    39a8:	e6bf1f31 	rev	r1, r1
    39ac:	e6bf2f32 	rev	r2, r2
    39b0:	e0851001 	add	r1, r5, r1
    39b4:	ebffff6d 	bl	3770 <memmove>
    39b8:	e6bf8f38 	rev	r8, r8
    39bc:	e584800c 	str	r8, [r4, #12]
    39c0:	e5953020 	ldr	r3, [r5, #32]
    39c4:	e6bf3f33 	rev	r3, r3
    39c8:	e6bf3f33 	rev	r3, r3
    39cc:	e5843020 	str	r3, [r4, #32]
    39d0:	e8bd81f0 	pop	{r4, r5, r6, r7, r8, pc}

000039d4 <_fdt_splice>:
    39d4:	e091c002 	adds	ip, r1, r2
    39d8:	e92d4070 	push	{r4, r5, r6, lr}
    39dc:	e590400c 	ldr	r4, [r0, #12]
    39e0:	e5905020 	ldr	r5, [r0, #32]
    39e4:	e6bf4f34 	rev	r4, r4
    39e8:	e6bf5f35 	rev	r5, r5
    39ec:	2a000013 	bcs	3a40 <_fdt_splice+0x6c>
    39f0:	e0854004 	add	r4, r5, r4
    39f4:	e0804004 	add	r4, r0, r4
    39f8:	e154000c 	cmp	r4, ip
    39fc:	3a00000f 	bcc	3a40 <_fdt_splice+0x6c>
    3a00:	e0625003 	rsb	r5, r2, r3
    3a04:	e5906004 	ldr	r6, [r0, #4]
    3a08:	e0845005 	add	r5, r4, r5
    3a0c:	e6bf6f36 	rev	r6, r6
    3a10:	e0800006 	add	r0, r0, r6
    3a14:	e1550000 	cmp	r5, r0
    3a18:	8a000006 	bhi	3a38 <_fdt_splice+0x64>
    3a1c:	e0614004 	rsb	r4, r1, r4
    3a20:	e0810003 	add	r0, r1, r3
    3a24:	e0622004 	rsb	r2, r2, r4
    3a28:	e1a0100c 	mov	r1, ip
    3a2c:	ebffff4f 	bl	3770 <memmove>
    3a30:	e3a00000 	mov	r0, #0
    3a34:	e8bd8070 	pop	{r4, r5, r6, pc}
    3a38:	e3e00002 	mvn	r0, #2
    3a3c:	e8bd8070 	pop	{r4, r5, r6, pc}
    3a40:	e3e00003 	mvn	r0, #3
    3a44:	e8bd8070 	pop	{r4, r5, r6, pc}

00003a48 <_fdt_splice_struct>:
    3a48:	e92d4070 	push	{r4, r5, r6, lr}
    3a4c:	e1a04000 	mov	r4, r0
    3a50:	e1a05002 	mov	r5, r2
    3a54:	e1a06003 	mov	r6, r3
    3a58:	ebffffdd 	bl	39d4 <_fdt_splice>
    3a5c:	e3500000 	cmp	r0, #0
    3a60:	18bd8070 	popne	{r4, r5, r6, pc}
    3a64:	e0655006 	rsb	r5, r5, r6
    3a68:	e5943024 	ldr	r3, [r4, #36]	; 0x24
    3a6c:	e594600c 	ldr	r6, [r4, #12]
    3a70:	e6bf3f33 	rev	r3, r3
    3a74:	e6bf6f36 	rev	r6, r6
    3a78:	e0833005 	add	r3, r3, r5
    3a7c:	e0865005 	add	r5, r6, r5
    3a80:	e6bf3f33 	rev	r3, r3
    3a84:	e6bf5f35 	rev	r5, r5
    3a88:	e5843024 	str	r3, [r4, #36]	; 0x24
    3a8c:	e584500c 	str	r5, [r4, #12]
    3a90:	e8bd8070 	pop	{r4, r5, r6, pc}

00003a94 <_fdt_splice_mem_rsv>:
    3a94:	e92d4070 	push	{r4, r5, r6, lr}
    3a98:	e1a05002 	mov	r5, r2
    3a9c:	e1a06003 	mov	r6, r3
    3aa0:	e1a02202 	lsl	r2, r2, #4
    3aa4:	e1a03203 	lsl	r3, r3, #4
    3aa8:	e1a04000 	mov	r4, r0
    3aac:	ebffffc8 	bl	39d4 <_fdt_splice>
    3ab0:	e3500000 	cmp	r0, #0
    3ab4:	18bd8070 	popne	{r4, r5, r6, pc}
    3ab8:	e0655006 	rsb	r5, r5, r6
    3abc:	e5943008 	ldr	r3, [r4, #8]
    3ac0:	e594200c 	ldr	r2, [r4, #12]
    3ac4:	e1a05205 	lsl	r5, r5, #4
    3ac8:	e6bf6f32 	rev	r6, r2
    3acc:	e6bf3f33 	rev	r3, r3
    3ad0:	e0833005 	add	r3, r3, r5
    3ad4:	e0865005 	add	r5, r6, r5
    3ad8:	e6bf3f33 	rev	r3, r3
    3adc:	e6bf5f35 	rev	r5, r5
    3ae0:	e5843008 	str	r3, [r4, #8]
    3ae4:	e584500c 	str	r5, [r4, #12]
    3ae8:	e8bd8070 	pop	{r4, r5, r6, pc}

00003aec <_fdt_add_property>:
    3aec:	e92d4ff0 	push	{r4, r5, r6, r7, r8, r9, sl, fp, lr}
    3af0:	e24dd00c 	sub	sp, sp, #12
    3af4:	e1a04000 	mov	r4, r0
    3af8:	e1a07002 	mov	r7, r2
    3afc:	e1a0a003 	mov	sl, r3
    3b00:	e59d6030 	ldr	r6, [sp, #48]	; 0x30
    3b04:	eb0005fb 	bl	52f8 <_fdt_check_node_offset>
    3b08:	e2505000 	subs	r5, r0, #0
    3b0c:	ba000026 	blt	3bac <_fdt_add_property+0xc0>
    3b10:	e1a00007 	mov	r0, r7
    3b14:	e594800c 	ldr	r8, [r4, #12]
    3b18:	ebffff24 	bl	37b0 <strlen>
    3b1c:	e5941020 	ldr	r1, [r4, #32]
    3b20:	e6bf8f38 	rev	r8, r8
    3b24:	e0848008 	add	r8, r4, r8
    3b28:	e1a02007 	mov	r2, r7
    3b2c:	e6bf1f31 	rev	r1, r1
    3b30:	e1a0b000 	mov	fp, r0
    3b34:	e1a00008 	mov	r0, r8
    3b38:	eb000640 	bl	5440 <_fdt_find_string>
    3b3c:	e2502000 	subs	r2, r0, #0
    3b40:	10689002 	rsbne	r9, r8, r2
    3b44:	0a00001b 	beq	3bb8 <_fdt_add_property+0xcc>
    3b48:	e3590000 	cmp	r9, #0
    3b4c:	b1a05009 	movlt	r5, r9
    3b50:	ba000015 	blt	3bac <_fdt_add_property+0xc0>
    3b54:	e28a3003 	add	r3, sl, #3
    3b58:	e5941008 	ldr	r1, [r4, #8]
    3b5c:	e3c33003 	bic	r3, r3, #3
    3b60:	e1a00004 	mov	r0, r4
    3b64:	e6bf1f31 	rev	r1, r1
    3b68:	e0815005 	add	r5, r1, r5
    3b6c:	e3a02000 	mov	r2, #0
    3b70:	e0841005 	add	r1, r4, r5
    3b74:	e283300c 	add	r3, r3, #12
    3b78:	e5861000 	str	r1, [r6]
    3b7c:	ebffffb1 	bl	3a48 <_fdt_splice_struct>
    3b80:	e2505000 	subs	r5, r0, #0
    3b84:	1a000008 	bne	3bac <_fdt_add_property+0xc0>
    3b88:	e5963000 	ldr	r3, [r6]
    3b8c:	e3a02403 	mov	r2, #50331648	; 0x3000000
    3b90:	e6bf9f39 	rev	r9, r9
    3b94:	e6bfaf3a 	rev	sl, sl
    3b98:	e5832000 	str	r2, [r3]
    3b9c:	e5963000 	ldr	r3, [r6]
    3ba0:	e5839008 	str	r9, [r3, #8]
    3ba4:	e5963000 	ldr	r3, [r6]
    3ba8:	e583a004 	str	sl, [r3, #4]
    3bac:	e1a00005 	mov	r0, r5
    3bb0:	e28dd00c 	add	sp, sp, #12
    3bb4:	e8bd8ff0 	pop	{r4, r5, r6, r7, r8, r9, sl, fp, pc}
    3bb8:	e28bb001 	add	fp, fp, #1
    3bbc:	e594c020 	ldr	ip, [r4, #32]
    3bc0:	e594100c 	ldr	r1, [r4, #12]
    3bc4:	e1a00004 	mov	r0, r4
    3bc8:	e6bfcf3c 	rev	ip, ip
    3bcc:	e6bf1f31 	rev	r1, r1
    3bd0:	e08c1001 	add	r1, ip, r1
    3bd4:	e1a0300b 	mov	r3, fp
    3bd8:	e0841001 	add	r1, r4, r1
    3bdc:	e58dc004 	str	ip, [sp, #4]
    3be0:	ebffff7b 	bl	39d4 <_fdt_splice>
    3be4:	e59dc004 	ldr	ip, [sp, #4]
    3be8:	e2509000 	subs	r9, r0, #0
    3bec:	1affffd5 	bne	3b48 <_fdt_add_property+0x5c>
    3bf0:	e088900c 	add	r9, r8, ip
    3bf4:	e5943020 	ldr	r3, [r4, #32]
    3bf8:	e1a0200b 	mov	r2, fp
    3bfc:	e1a01007 	mov	r1, r7
    3c00:	e6bf3f33 	rev	r3, r3
    3c04:	e1a00009 	mov	r0, r9
    3c08:	e083b00b 	add	fp, r3, fp
    3c0c:	e6bfbf3b 	rev	fp, fp
    3c10:	e584b020 	str	fp, [r4, #32]
    3c14:	e0689009 	rsb	r9, r8, r9
    3c18:	ebfffe9d 	bl	3694 <memcpy>
    3c1c:	eaffffc9 	b	3b48 <_fdt_add_property+0x5c>

00003c20 <_fdt_blocks_misordered>:
    3c20:	e5903010 	ldr	r3, [r0, #16]
    3c24:	e6bf3f33 	rev	r3, r3
    3c28:	e3530027 	cmp	r3, #39	; 0x27
    3c2c:	9a000014 	bls	3c84 <_fdt_blocks_misordered+0x64>
    3c30:	e0833001 	add	r3, r3, r1
    3c34:	e590c008 	ldr	ip, [r0, #8]
    3c38:	e6bfcf3c 	rev	ip, ip
    3c3c:	e15c0003 	cmp	ip, r3
    3c40:	3a00000d 	bcc	3c7c <_fdt_blocks_misordered+0x5c>
    3c44:	e08cc002 	add	ip, ip, r2
    3c48:	e590300c 	ldr	r3, [r0, #12]
    3c4c:	e6bf3f33 	rev	r3, r3
    3c50:	e153000c 	cmp	r3, ip
    3c54:	3a000008 	bcc	3c7c <_fdt_blocks_misordered+0x5c>
    3c58:	e5902020 	ldr	r2, [r0, #32]
    3c5c:	e6bf2f32 	rev	r2, r2
    3c60:	e0823003 	add	r3, r2, r3
    3c64:	e5900004 	ldr	r0, [r0, #4]
    3c68:	e6bf0f30 	rev	r0, r0
    3c6c:	e1500003 	cmp	r0, r3
    3c70:	23a00000 	movcs	r0, #0
    3c74:	33a00001 	movcc	r0, #1
    3c78:	e12fff1e 	bx	lr
    3c7c:	e3a00001 	mov	r0, #1
    3c80:	e12fff1e 	bx	lr
    3c84:	e3a00001 	mov	r0, #1
    3c88:	e12fff1e 	bx	lr

00003c8c <_fdt_rw_check_header>:
    3c8c:	e92d4070 	push	{r4, r5, r6, lr}
    3c90:	e1a04000 	mov	r4, r0
    3c94:	eb000529 	bl	5140 <fdt_check_header>
    3c98:	e2505000 	subs	r5, r0, #0
    3c9c:	1a00000f 	bne	3ce0 <_fdt_rw_check_header+0x54>
    3ca0:	e5946014 	ldr	r6, [r4, #20]
    3ca4:	e6bf6f36 	rev	r6, r6
    3ca8:	e3560010 	cmp	r6, #16
    3cac:	93e05009 	mvnls	r5, #9
    3cb0:	9a00000a 	bls	3ce0 <_fdt_rw_check_header+0x54>
    3cb4:	e5942024 	ldr	r2, [r4, #36]	; 0x24
    3cb8:	e1a00004 	mov	r0, r4
    3cbc:	e6bf2f32 	rev	r2, r2
    3cc0:	e3a01010 	mov	r1, #16
    3cc4:	ebffffd5 	bl	3c20 <_fdt_blocks_misordered>
    3cc8:	e3500000 	cmp	r0, #0
    3ccc:	13e0500b 	mvnne	r5, #11
    3cd0:	1a000002 	bne	3ce0 <_fdt_rw_check_header+0x54>
    3cd4:	e3560011 	cmp	r6, #17
    3cd8:	83a03411 	movhi	r3, #285212672	; 0x11000000
    3cdc:	85843014 	strhi	r3, [r4, #20]
    3ce0:	e1a00005 	mov	r0, r5
    3ce4:	e8bd8070 	pop	{r4, r5, r6, pc}

00003ce8 <fdt_add_mem_rsv>:
    3ce8:	e92d4ff8 	push	{r3, r4, r5, r6, r7, r8, r9, sl, fp, lr}
    3cec:	e1a0a000 	mov	sl, r0
    3cf0:	e1a05002 	mov	r5, r2
    3cf4:	e1a07003 	mov	r7, r3
    3cf8:	e59d6028 	ldr	r6, [sp, #40]	; 0x28
    3cfc:	e59d802c 	ldr	r8, [sp, #44]	; 0x2c
    3d00:	ebffffe1 	bl	3c8c <_fdt_rw_check_header>
    3d04:	e2504000 	subs	r4, r0, #0
    3d08:	0a000001 	beq	3d14 <fdt_add_mem_rsv+0x2c>
    3d0c:	e1a00004 	mov	r0, r4
    3d10:	e8bd8ff8 	pop	{r3, r4, r5, r6, r7, r8, r9, sl, fp, pc}
    3d14:	e1a0000a 	mov	r0, sl
    3d18:	eb00020d 	bl	4554 <fdt_num_mem_rsv>
    3d1c:	e59a9010 	ldr	r9, [sl, #16]
    3d20:	e6bf9f39 	rev	r9, r9
    3d24:	e08a9009 	add	r9, sl, r9
    3d28:	e1a02004 	mov	r2, r4
    3d2c:	e3a03001 	mov	r3, #1
    3d30:	e1a0b200 	lsl	fp, r0, #4
    3d34:	e1a0000a 	mov	r0, sl
    3d38:	e089a00b 	add	sl, r9, fp
    3d3c:	e1a0100a 	mov	r1, sl
    3d40:	ebffff53 	bl	3a94 <_fdt_splice_mem_rsv>
    3d44:	e3500000 	cmp	r0, #0
    3d48:	11a04000 	movne	r4, r0
    3d4c:	1affffee 	bne	3d0c <fdt_add_mem_rsv+0x24>
    3d50:	e6bf5f35 	rev	r5, r5
    3d54:	e6bf6f36 	rev	r6, r6
    3d58:	e6bf7f37 	rev	r7, r7
    3d5c:	e1a03005 	mov	r3, r5
    3d60:	e1842007 	orr	r2, r4, r7
    3d64:	e6bf8f38 	rev	r8, r8
    3d68:	e18920fb 	strd	r2, [r9, fp]
    3d6c:	e1840008 	orr	r0, r4, r8
    3d70:	e1a01006 	mov	r1, r6
    3d74:	e1ca00f8 	strd	r0, [sl, #8]
    3d78:	e1a00004 	mov	r0, r4
    3d7c:	e8bd8ff8 	pop	{r3, r4, r5, r6, r7, r8, r9, sl, fp, pc}

00003d80 <fdt_del_mem_rsv>:
    3d80:	e92d41f0 	push	{r4, r5, r6, r7, r8, lr}
    3d84:	e1a05000 	mov	r5, r0
    3d88:	e5907010 	ldr	r7, [r0, #16]
    3d8c:	e1a06001 	mov	r6, r1
    3d90:	ebffffbd 	bl	3c8c <_fdt_rw_check_header>
    3d94:	e6bf7f37 	rev	r7, r7
    3d98:	e2504000 	subs	r4, r0, #0
    3d9c:	0a000001 	beq	3da8 <fdt_del_mem_rsv+0x28>
    3da0:	e1a00004 	mov	r0, r4
    3da4:	e8bd81f0 	pop	{r4, r5, r6, r7, r8, pc}
    3da8:	e1a00005 	mov	r0, r5
    3dac:	eb0001e8 	bl	4554 <fdt_num_mem_rsv>
    3db0:	e1560000 	cmp	r6, r0
    3db4:	aa000006 	bge	3dd4 <fdt_del_mem_rsv+0x54>
    3db8:	e0851007 	add	r1, r5, r7
    3dbc:	e1a00005 	mov	r0, r5
    3dc0:	e0811206 	add	r1, r1, r6, lsl #4
    3dc4:	e3a02001 	mov	r2, #1
    3dc8:	e1a03004 	mov	r3, r4
    3dcc:	e8bd41f0 	pop	{r4, r5, r6, r7, r8, lr}
    3dd0:	eaffff2f 	b	3a94 <_fdt_splice_mem_rsv>
    3dd4:	e3e04000 	mvn	r4, #0
    3dd8:	eafffff0 	b	3da0 <fdt_del_mem_rsv+0x20>

00003ddc <fdt_set_name>:
    3ddc:	e92d41f0 	push	{r4, r5, r6, r7, r8, lr}
    3de0:	e24dd008 	sub	sp, sp, #8
    3de4:	e1a08000 	mov	r8, r0
    3de8:	e1a06001 	mov	r6, r1
    3dec:	e1a05002 	mov	r5, r2
    3df0:	ebffffa5 	bl	3c8c <_fdt_rw_check_header>
    3df4:	e2504000 	subs	r4, r0, #0
    3df8:	0a000002 	beq	3e08 <fdt_set_name+0x2c>
    3dfc:	e1a00004 	mov	r0, r4
    3e00:	e28dd008 	add	sp, sp, #8
    3e04:	e8bd81f0 	pop	{r4, r5, r6, r7, r8, pc}
    3e08:	e1a01006 	mov	r1, r6
    3e0c:	e1a00008 	mov	r0, r8
    3e10:	e28d2004 	add	r2, sp, #4
    3e14:	eb000226 	bl	46b4 <fdt_get_name>
    3e18:	e2506000 	subs	r6, r0, #0
    3e1c:	059d4004 	ldreq	r4, [sp, #4]
    3e20:	0afffff5 	beq	3dfc <fdt_set_name+0x20>
    3e24:	e1a00005 	mov	r0, r5
    3e28:	ebfffe60 	bl	37b0 <strlen>
    3e2c:	e59d2004 	ldr	r2, [sp, #4]
    3e30:	e1a01006 	mov	r1, r6
    3e34:	e2822004 	add	r2, r2, #4
    3e38:	e3c22003 	bic	r2, r2, #3
    3e3c:	e2803004 	add	r3, r0, #4
    3e40:	e1a07000 	mov	r7, r0
    3e44:	e3c33003 	bic	r3, r3, #3
    3e48:	e1a00008 	mov	r0, r8
    3e4c:	ebfffefd 	bl	3a48 <_fdt_splice_struct>
    3e50:	e3500000 	cmp	r0, #0
    3e54:	11a04000 	movne	r4, r0
    3e58:	1affffe7 	bne	3dfc <fdt_set_name+0x20>
    3e5c:	e1a00006 	mov	r0, r6
    3e60:	e1a01005 	mov	r1, r5
    3e64:	e2872001 	add	r2, r7, #1
    3e68:	ebfffe09 	bl	3694 <memcpy>
    3e6c:	eaffffe2 	b	3dfc <fdt_set_name+0x20>

00003e70 <fdt_setprop>:
    3e70:	e92d45f0 	push	{r4, r5, r6, r7, r8, sl, lr}
    3e74:	e24dd014 	sub	sp, sp, #20
    3e78:	e1a05000 	mov	r5, r0
    3e7c:	e1a07001 	mov	r7, r1
    3e80:	e1a06002 	mov	r6, r2
    3e84:	e1a08003 	mov	r8, r3
    3e88:	e59da030 	ldr	sl, [sp, #48]	; 0x30
    3e8c:	ebffff7e 	bl	3c8c <_fdt_rw_check_header>
    3e90:	e2504000 	subs	r4, r0, #0
    3e94:	0a000002 	beq	3ea4 <fdt_setprop+0x34>
    3e98:	e1a00004 	mov	r0, r4
    3e9c:	e28dd014 	add	sp, sp, #20
    3ea0:	e8bd85f0 	pop	{r4, r5, r6, r7, r8, sl, pc}
    3ea4:	e1a01007 	mov	r1, r7
    3ea8:	e1a00005 	mov	r0, r5
    3eac:	e1a02006 	mov	r2, r6
    3eb0:	e28d300c 	add	r3, sp, #12
    3eb4:	eb00026d 	bl	4870 <fdt_get_property>
    3eb8:	e3500000 	cmp	r0, #0
    3ebc:	e1a01000 	mov	r1, r0
    3ec0:	e58d0008 	str	r0, [sp, #8]
    3ec4:	059d000c 	ldreq	r0, [sp, #12]
    3ec8:	0a000011 	beq	3f14 <fdt_setprop+0xa4>
    3ecc:	e59d200c 	ldr	r2, [sp, #12]
    3ed0:	e28a3003 	add	r3, sl, #3
    3ed4:	e1a00005 	mov	r0, r5
    3ed8:	e281100c 	add	r1, r1, #12
    3edc:	e2822003 	add	r2, r2, #3
    3ee0:	e3c33003 	bic	r3, r3, #3
    3ee4:	e3c22003 	bic	r2, r2, #3
    3ee8:	ebfffed6 	bl	3a48 <_fdt_splice_struct>
    3eec:	e3500000 	cmp	r0, #0
    3ef0:	1a000007 	bne	3f14 <fdt_setprop+0xa4>
    3ef4:	e59d0008 	ldr	r0, [sp, #8]
    3ef8:	e6bf3f3a 	rev	r3, sl
    3efc:	e5803004 	str	r3, [r0, #4]
    3f00:	e1a01008 	mov	r1, r8
    3f04:	e1a0200a 	mov	r2, sl
    3f08:	e280000c 	add	r0, r0, #12
    3f0c:	ebfffde0 	bl	3694 <memcpy>
    3f10:	eaffffe0 	b	3e98 <fdt_setprop+0x28>
    3f14:	e3700001 	cmn	r0, #1
    3f18:	0a000004 	beq	3f30 <fdt_setprop+0xc0>
    3f1c:	e3500000 	cmp	r0, #0
    3f20:	11a04000 	movne	r4, r0
    3f24:	1affffdb 	bne	3e98 <fdt_setprop+0x28>
    3f28:	e59d0008 	ldr	r0, [sp, #8]
    3f2c:	eafffff3 	b	3f00 <fdt_setprop+0x90>
    3f30:	e1a00005 	mov	r0, r5
    3f34:	e1a01007 	mov	r1, r7
    3f38:	e1a02006 	mov	r2, r6
    3f3c:	e1a0300a 	mov	r3, sl
    3f40:	e28dc008 	add	ip, sp, #8
    3f44:	e58dc000 	str	ip, [sp]
    3f48:	ebfffee7 	bl	3aec <_fdt_add_property>
    3f4c:	eafffff2 	b	3f1c <fdt_setprop+0xac>

00003f50 <fdt_appendprop>:
    3f50:	e92d45f0 	push	{r4, r5, r6, r7, r8, sl, lr}
    3f54:	e24dd014 	sub	sp, sp, #20
    3f58:	e1a05000 	mov	r5, r0
    3f5c:	e1a07001 	mov	r7, r1
    3f60:	e1a06002 	mov	r6, r2
    3f64:	e1a08003 	mov	r8, r3
    3f68:	e59da030 	ldr	sl, [sp, #48]	; 0x30
    3f6c:	ebffff46 	bl	3c8c <_fdt_rw_check_header>
    3f70:	e2504000 	subs	r4, r0, #0
    3f74:	0a000002 	beq	3f84 <fdt_appendprop+0x34>
    3f78:	e1a00004 	mov	r0, r4
    3f7c:	e28dd014 	add	sp, sp, #20
    3f80:	e8bd85f0 	pop	{r4, r5, r6, r7, r8, sl, pc}
    3f84:	e1a01007 	mov	r1, r7
    3f88:	e1a00005 	mov	r0, r5
    3f8c:	e1a02006 	mov	r2, r6
    3f90:	e28d300c 	add	r3, sp, #12
    3f94:	eb000235 	bl	4870 <fdt_get_property>
    3f98:	e3500000 	cmp	r0, #0
    3f9c:	e1a01000 	mov	r1, r0
    3fa0:	e58d0008 	str	r0, [sp, #8]
    3fa4:	0a000014 	beq	3ffc <fdt_appendprop+0xac>
    3fa8:	e59d200c 	ldr	r2, [sp, #12]
    3fac:	e1a00005 	mov	r0, r5
    3fb0:	e281100c 	add	r1, r1, #12
    3fb4:	e08a5002 	add	r5, sl, r2
    3fb8:	e2822003 	add	r2, r2, #3
    3fbc:	e2853003 	add	r3, r5, #3
    3fc0:	e3c22003 	bic	r2, r2, #3
    3fc4:	e3c33003 	bic	r3, r3, #3
    3fc8:	ebfffe9e 	bl	3a48 <_fdt_splice_struct>
    3fcc:	e3500000 	cmp	r0, #0
    3fd0:	1a000012 	bne	4020 <fdt_appendprop+0xd0>
    3fd4:	e59d3008 	ldr	r3, [sp, #8]
    3fd8:	e1a01008 	mov	r1, r8
    3fdc:	e59d000c 	ldr	r0, [sp, #12]
    3fe0:	e1a0200a 	mov	r2, sl
    3fe4:	e6bf5f35 	rev	r5, r5
    3fe8:	e0830000 	add	r0, r3, r0
    3fec:	e5835004 	str	r5, [r3, #4]
    3ff0:	e280000c 	add	r0, r0, #12
    3ff4:	ebfffda6 	bl	3694 <memcpy>
    3ff8:	eaffffde 	b	3f78 <fdt_appendprop+0x28>
    3ffc:	e1a00005 	mov	r0, r5
    4000:	e1a01007 	mov	r1, r7
    4004:	e1a02006 	mov	r2, r6
    4008:	e1a0300a 	mov	r3, sl
    400c:	e28dc008 	add	ip, sp, #8
    4010:	e58dc000 	str	ip, [sp]
    4014:	ebfffeb4 	bl	3aec <_fdt_add_property>
    4018:	e3500000 	cmp	r0, #0
    401c:	0a000001 	beq	4028 <fdt_appendprop+0xd8>
    4020:	e1a04000 	mov	r4, r0
    4024:	eaffffd3 	b	3f78 <fdt_appendprop+0x28>
    4028:	e59d0008 	ldr	r0, [sp, #8]
    402c:	e1a01008 	mov	r1, r8
    4030:	e1a0200a 	mov	r2, sl
    4034:	e280000c 	add	r0, r0, #12
    4038:	ebfffd95 	bl	3694 <memcpy>
    403c:	eaffffcd 	b	3f78 <fdt_appendprop+0x28>

00004040 <fdt_delprop>:
    4040:	e92d40f0 	push	{r4, r5, r6, r7, lr}
    4044:	e24dd00c 	sub	sp, sp, #12
    4048:	e1a05000 	mov	r5, r0
    404c:	e1a07001 	mov	r7, r1
    4050:	e1a06002 	mov	r6, r2
    4054:	ebffff0c 	bl	3c8c <_fdt_rw_check_header>
    4058:	e2504000 	subs	r4, r0, #0
    405c:	0a000002 	beq	406c <fdt_delprop+0x2c>
    4060:	e1a00004 	mov	r0, r4
    4064:	e28dd00c 	add	sp, sp, #12
    4068:	e8bd80f0 	pop	{r4, r5, r6, r7, pc}
    406c:	e1a01007 	mov	r1, r7
    4070:	e1a00005 	mov	r0, r5
    4074:	e1a02006 	mov	r2, r6
    4078:	e28d3004 	add	r3, sp, #4
    407c:	eb0001fb 	bl	4870 <fdt_get_property>
    4080:	e2501000 	subs	r1, r0, #0
    4084:	059d4004 	ldreq	r4, [sp, #4]
    4088:	0afffff4 	beq	4060 <fdt_delprop+0x20>
    408c:	e59d2004 	ldr	r2, [sp, #4]
    4090:	e1a03004 	mov	r3, r4
    4094:	e1a00005 	mov	r0, r5
    4098:	e2822003 	add	r2, r2, #3
    409c:	e3c22003 	bic	r2, r2, #3
    40a0:	e282200c 	add	r2, r2, #12
    40a4:	ebfffe67 	bl	3a48 <_fdt_splice_struct>
    40a8:	e1a04000 	mov	r4, r0
    40ac:	eaffffeb 	b	4060 <fdt_delprop+0x20>

000040b0 <fdt_add_subnode_namelen>:
    40b0:	e92d4ff0 	push	{r4, r5, r6, r7, r8, r9, sl, fp, lr}
    40b4:	e24dd00c 	sub	sp, sp, #12
    40b8:	e1a04000 	mov	r4, r0
    40bc:	e1a08001 	mov	r8, r1
    40c0:	e1a06002 	mov	r6, r2
    40c4:	e1a05003 	mov	r5, r3
    40c8:	ebfffeef 	bl	3c8c <_fdt_rw_check_header>
    40cc:	e3500000 	cmp	r0, #0
    40d0:	0a000001 	beq	40dc <fdt_add_subnode_namelen+0x2c>
    40d4:	e28dd00c 	add	sp, sp, #12
    40d8:	e8bd8ff0 	pop	{r4, r5, r6, r7, r8, r9, sl, fp, pc}
    40dc:	e1a00004 	mov	r0, r4
    40e0:	e1a01008 	mov	r1, r8
    40e4:	e1a02006 	mov	r2, r6
    40e8:	e1a03005 	mov	r3, r5
    40ec:	eb00012d 	bl	45a8 <fdt_subnode_offset_namelen>
    40f0:	e3500000 	cmp	r0, #0
    40f4:	a3e00001 	mvnge	r0, #1
    40f8:	aafffff5 	bge	40d4 <fdt_add_subnode_namelen+0x24>
    40fc:	e3700001 	cmn	r0, #1
    4100:	1afffff3 	bne	40d4 <fdt_add_subnode_namelen+0x24>
    4104:	e1a00004 	mov	r0, r4
    4108:	e1a01008 	mov	r1, r8
    410c:	e28d2004 	add	r2, sp, #4
    4110:	eb00043b 	bl	5204 <fdt_next_tag>
    4114:	e59d7004 	ldr	r7, [sp, #4]
    4118:	e1a00004 	mov	r0, r4
    411c:	e28d2004 	add	r2, sp, #4
    4120:	e1a01007 	mov	r1, r7
    4124:	eb000436 	bl	5204 <fdt_next_tag>
    4128:	e2400003 	sub	r0, r0, #3
    412c:	e3500001 	cmp	r0, #1
    4130:	9afffff7 	bls	4114 <fdt_add_subnode_namelen+0x64>
    4134:	e5949008 	ldr	r9, [r4, #8]
    4138:	e2858004 	add	r8, r5, #4
    413c:	e6bf9f39 	rev	r9, r9
    4140:	e0879009 	add	r9, r7, r9
    4144:	e3c88003 	bic	r8, r8, #3
    4148:	e084a009 	add	sl, r4, r9
    414c:	e1a00004 	mov	r0, r4
    4150:	e3a02000 	mov	r2, #0
    4154:	e2883008 	add	r3, r8, #8
    4158:	e1a0100a 	mov	r1, sl
    415c:	ebfffe39 	bl	3a48 <_fdt_splice_struct>
    4160:	e3500000 	cmp	r0, #0
    4164:	1affffda 	bne	40d4 <fdt_add_subnode_namelen+0x24>
    4168:	e3580000 	cmp	r8, #0
    416c:	e3a03401 	mov	r3, #16777216	; 0x1000000
    4170:	e28ab004 	add	fp, sl, #4
    4174:	e7843009 	str	r3, [r4, r9]
    4178:	1a000008 	bne	41a0 <fdt_add_subnode_namelen+0xf0>
    417c:	e08a8008 	add	r8, sl, r8
    4180:	e1a0000b 	mov	r0, fp
    4184:	e1a01006 	mov	r1, r6
    4188:	e1a02005 	mov	r2, r5
    418c:	ebfffd40 	bl	3694 <memcpy>
    4190:	e3a03402 	mov	r3, #33554432	; 0x2000000
    4194:	e1a00007 	mov	r0, r7
    4198:	e5883004 	str	r3, [r8, #4]
    419c:	eaffffcc 	b	40d4 <fdt_add_subnode_namelen+0x24>
    41a0:	e1a0000b 	mov	r0, fp
    41a4:	e1a01008 	mov	r1, r8
    41a8:	ebfffdbd 	bl	38a4 <__memzero>
    41ac:	eafffff2 	b	417c <fdt_add_subnode_namelen+0xcc>

000041b0 <fdt_add_subnode>:
    41b0:	e92d4070 	push	{r4, r5, r6, lr}
    41b4:	e1a05000 	mov	r5, r0
    41b8:	e1a00002 	mov	r0, r2
    41bc:	e1a04002 	mov	r4, r2
    41c0:	e1a06001 	mov	r6, r1
    41c4:	ebfffd79 	bl	37b0 <strlen>
    41c8:	e1a01006 	mov	r1, r6
    41cc:	e1a02004 	mov	r2, r4
    41d0:	e1a03000 	mov	r3, r0
    41d4:	e1a00005 	mov	r0, r5
    41d8:	e8bd4070 	pop	{r4, r5, r6, lr}
    41dc:	eaffffb3 	b	40b0 <fdt_add_subnode_namelen>

000041e0 <fdt_del_node>:
    41e0:	e92d4070 	push	{r4, r5, r6, lr}
    41e4:	e1a06000 	mov	r6, r0
    41e8:	e1a05001 	mov	r5, r1
    41ec:	ebfffea6 	bl	3c8c <_fdt_rw_check_header>
    41f0:	e2504000 	subs	r4, r0, #0
    41f4:	0a000001 	beq	4200 <fdt_del_node+0x20>
    41f8:	e1a00004 	mov	r0, r4
    41fc:	e8bd8070 	pop	{r4, r5, r6, pc}
    4200:	e1a00006 	mov	r0, r6
    4204:	e1a01005 	mov	r1, r5
    4208:	eb0003a5 	bl	50a4 <_fdt_node_end_offset>
    420c:	e2502000 	subs	r2, r0, #0
    4210:	ba000008 	blt	4238 <fdt_del_node+0x58>
    4214:	e5961008 	ldr	r1, [r6, #8]
    4218:	e1a00006 	mov	r0, r6
    421c:	e6bf1f31 	rev	r1, r1
    4220:	e0811005 	add	r1, r1, r5
    4224:	e0652002 	rsb	r2, r5, r2
    4228:	e0861001 	add	r1, r6, r1
    422c:	e1a03004 	mov	r3, r4
    4230:	e8bd4070 	pop	{r4, r5, r6, lr}
    4234:	eafffe03 	b	3a48 <_fdt_splice_struct>
    4238:	e1a04002 	mov	r4, r2
    423c:	eaffffed 	b	41f8 <fdt_del_node+0x18>

00004240 <fdt_open_into>:
    4240:	e92d4ff0 	push	{r4, r5, r6, r7, r8, r9, sl, fp, lr}
    4244:	e24dd00c 	sub	sp, sp, #12
    4248:	e590a004 	ldr	sl, [r0, #4]
    424c:	e1a04000 	mov	r4, r0
    4250:	e1a05001 	mov	r5, r1
    4254:	e1a07002 	mov	r7, r2
    4258:	eb0003b8 	bl	5140 <fdt_check_header>
    425c:	e6bfaf3a 	rev	sl, sl
    4260:	e2506000 	subs	r6, r0, #0
    4264:	0a000002 	beq	4274 <fdt_open_into+0x34>
    4268:	e1a00006 	mov	r0, r6
    426c:	e28dd00c 	add	sp, sp, #12
    4270:	e8bd8ff0 	pop	{r4, r5, r6, r7, r8, r9, sl, fp, pc}
    4274:	e1a00004 	mov	r0, r4
    4278:	eb0000b5 	bl	4554 <fdt_num_mem_rsv>
    427c:	e5943014 	ldr	r3, [r4, #20]
    4280:	e6bf3f33 	rev	r3, r3
    4284:	e3530010 	cmp	r3, #16
    4288:	928d8008 	addls	r8, sp, #8
    428c:	91a01006 	movls	r1, r6
    4290:	95286004 	strls	r6, [r8, #-4]!
    4294:	e1a09000 	mov	r9, r0
    4298:	9a000004 	bls	42b0 <fdt_open_into+0x70>
    429c:	e5948024 	ldr	r8, [r4, #36]	; 0x24
    42a0:	e6bf8f38 	rev	r8, r8
    42a4:	e58d8004 	str	r8, [sp, #4]
    42a8:	ea000009 	b	42d4 <fdt_open_into+0x94>
    42ac:	e59d1004 	ldr	r1, [sp, #4]
    42b0:	e1a00004 	mov	r0, r4
    42b4:	e1a02008 	mov	r2, r8
    42b8:	eb0003d1 	bl	5204 <fdt_next_tag>
    42bc:	e3500009 	cmp	r0, #9
    42c0:	1afffff9 	bne	42ac <fdt_open_into+0x6c>
    42c4:	e59d8004 	ldr	r8, [sp, #4]
    42c8:	e3580000 	cmp	r8, #0
    42cc:	b1a06008 	movlt	r6, r8
    42d0:	baffffe4 	blt	4268 <fdt_open_into+0x28>
    42d4:	e2899001 	add	r9, r9, #1
    42d8:	e1a00004 	mov	r0, r4
    42dc:	e1a02008 	mov	r2, r8
    42e0:	e1a09209 	lsl	r9, r9, #4
    42e4:	e1a01009 	mov	r1, r9
    42e8:	ebfffe4c 	bl	3c20 <_fdt_blocks_misordered>
    42ec:	e3500000 	cmp	r0, #0
    42f0:	0a00002a 	beq	43a0 <fdt_open_into+0x160>
    42f4:	e289b028 	add	fp, r9, #40	; 0x28
    42f8:	e5943020 	ldr	r3, [r4, #32]
    42fc:	e08bb008 	add	fp, fp, r8
    4300:	e6bf3f33 	rev	r3, r3
    4304:	e08bb003 	add	fp, fp, r3
    4308:	e157000b 	cmp	r7, fp
    430c:	ba00003a 	blt	43fc <fdt_open_into+0x1bc>
    4310:	e085300b 	add	r3, r5, fp
    4314:	e084a00a 	add	sl, r4, sl
    4318:	e1540003 	cmp	r4, r3
    431c:	23a03000 	movcs	r3, #0
    4320:	33a03001 	movcc	r3, #1
    4324:	e15a0005 	cmp	sl, r5
    4328:	93a03000 	movls	r3, #0
    432c:	e3530000 	cmp	r3, #0
    4330:	0a000029 	beq	43dc <fdt_open_into+0x19c>
    4334:	e08a200b 	add	r2, sl, fp
    4338:	e0853007 	add	r3, r5, r7
    433c:	e1520003 	cmp	r2, r3
    4340:	8a00002d 	bhi	43fc <fdt_open_into+0x1bc>
    4344:	e1a00004 	mov	r0, r4
    4348:	e1a0100a 	mov	r1, sl
    434c:	e1a03008 	mov	r3, r8
    4350:	e1a02009 	mov	r2, r9
    4354:	ebfffd79 	bl	3940 <_fdt_packblocks>
    4358:	e1a00005 	mov	r0, r5
    435c:	e1a0100a 	mov	r1, sl
    4360:	e1a0200b 	mov	r2, fp
    4364:	ebfffd01 	bl	3770 <memmove>
    4368:	e3a03edd 	mov	r3, #3536	; 0xdd0
    436c:	e6bf7f37 	rev	r7, r7
    4370:	e34e3dfe 	movt	r3, #60926	; 0xedfe
    4374:	e5857004 	str	r7, [r5, #4]
    4378:	e5853000 	str	r3, [r5]
    437c:	e3a03411 	mov	r3, #285212672	; 0x11000000
    4380:	e5853014 	str	r3, [r5, #20]
    4384:	e3a03201 	mov	r3, #268435456	; 0x10000000
    4388:	e5853018 	str	r3, [r5, #24]
    438c:	e594301c 	ldr	r3, [r4, #28]
    4390:	e6bf3f33 	rev	r3, r3
    4394:	e6bf3f33 	rev	r3, r3
    4398:	e585301c 	str	r3, [r5, #28]
    439c:	eaffffb1 	b	4268 <fdt_open_into+0x28>
    43a0:	e1a00004 	mov	r0, r4
    43a4:	e1a01005 	mov	r1, r5
    43a8:	e1a02007 	mov	r2, r7
    43ac:	eb00043c 	bl	54a4 <fdt_move>
    43b0:	e3500000 	cmp	r0, #0
    43b4:	11a06000 	movne	r6, r0
    43b8:	1affffaa 	bne	4268 <fdt_open_into+0x28>
    43bc:	e6bf7f37 	rev	r7, r7
    43c0:	e59d3004 	ldr	r3, [sp, #4]
    43c4:	e3a02411 	mov	r2, #285212672	; 0x11000000
    43c8:	e6bf3f33 	rev	r3, r3
    43cc:	e5852014 	str	r2, [r5, #20]
    43d0:	e5853024 	str	r3, [r5, #36]	; 0x24
    43d4:	e5857004 	str	r7, [r5, #4]
    43d8:	eaffffa2 	b	4268 <fdt_open_into+0x28>
    43dc:	e1a00004 	mov	r0, r4
    43e0:	e1a01005 	mov	r1, r5
    43e4:	e1a03008 	mov	r3, r8
    43e8:	e1a02009 	mov	r2, r9
    43ec:	ebfffd53 	bl	3940 <_fdt_packblocks>
    43f0:	e1a00005 	mov	r0, r5
    43f4:	e1a01005 	mov	r1, r5
    43f8:	eaffffd8 	b	4360 <fdt_open_into+0x120>
    43fc:	e3e06002 	mvn	r6, #2
    4400:	eaffff98 	b	4268 <fdt_open_into+0x28>

00004404 <fdt_pack>:
    4404:	e92d4038 	push	{r3, r4, r5, lr}
    4408:	e1a04000 	mov	r4, r0
    440c:	ebfffe1e 	bl	3c8c <_fdt_rw_check_header>
    4410:	e2505000 	subs	r5, r0, #0
    4414:	1a00000f 	bne	4458 <fdt_pack+0x54>
    4418:	e1a00004 	mov	r0, r4
    441c:	eb00004c 	bl	4554 <fdt_num_mem_rsv>
    4420:	e5943024 	ldr	r3, [r4, #36]	; 0x24
    4424:	e1a01004 	mov	r1, r4
    4428:	e6bf3f33 	rev	r3, r3
    442c:	e2802001 	add	r2, r0, #1
    4430:	e1a00004 	mov	r0, r4
    4434:	e1a02202 	lsl	r2, r2, #4
    4438:	ebfffd40 	bl	3940 <_fdt_packblocks>
    443c:	e594200c 	ldr	r2, [r4, #12]
    4440:	e5943020 	ldr	r3, [r4, #32]
    4444:	e6bf2f32 	rev	r2, r2
    4448:	e6bf3f33 	rev	r3, r3
    444c:	e0833002 	add	r3, r3, r2
    4450:	e6bf3f33 	rev	r3, r3
    4454:	e5843004 	str	r3, [r4, #4]
    4458:	e1a00005 	mov	r0, r5
    445c:	e8bd8038 	pop	{r3, r4, r5, pc}

00004460 <_nextprop>:
    4460:	e92d4030 	push	{r4, r5, lr}
    4464:	e24dd00c 	sub	sp, sp, #12
    4468:	e1a05000 	mov	r5, r0
    446c:	e1a04001 	mov	r4, r1
    4470:	e1a01004 	mov	r1, r4
    4474:	e1a00005 	mov	r0, r5
    4478:	e28d2004 	add	r2, sp, #4
    447c:	eb000360 	bl	5204 <fdt_next_tag>
    4480:	e3500003 	cmp	r0, #3
    4484:	0a000005 	beq	44a0 <_nextprop+0x40>
    4488:	e3500009 	cmp	r0, #9
    448c:	0a000006 	beq	44ac <_nextprop+0x4c>
    4490:	e3500004 	cmp	r0, #4
    4494:	e59d4004 	ldr	r4, [sp, #4]
    4498:	0afffff4 	beq	4470 <_nextprop+0x10>
    449c:	e3e04000 	mvn	r4, #0
    44a0:	e1a00004 	mov	r0, r4
    44a4:	e28dd00c 	add	sp, sp, #12
    44a8:	e8bd8030 	pop	{r4, r5, pc}
    44ac:	e59d4004 	ldr	r4, [sp, #4]
    44b0:	e3540000 	cmp	r4, #0
    44b4:	a3e0400a 	mvnge	r4, #10
    44b8:	eafffff8 	b	44a0 <_nextprop+0x40>

000044bc <fdt_string>:
    44bc:	e590300c 	ldr	r3, [r0, #12]
    44c0:	e6bf3f33 	rev	r3, r3
    44c4:	e0833001 	add	r3, r3, r1
    44c8:	e0800003 	add	r0, r0, r3
    44cc:	e12fff1e 	bx	lr

000044d0 <fdt_get_mem_rsv>:
    44d0:	e92d4ff8 	push	{r3, r4, r5, r6, r7, r8, r9, sl, fp, lr}
    44d4:	e1a04000 	mov	r4, r0
    44d8:	e1a05001 	mov	r5, r1
    44dc:	e1a06002 	mov	r6, r2
    44e0:	e1a07003 	mov	r7, r3
    44e4:	eb000315 	bl	5140 <fdt_check_header>
    44e8:	e3500000 	cmp	r0, #0
    44ec:	18bd8ff8 	popne	{r3, r4, r5, r6, r7, r8, r9, sl, fp, pc}
    44f0:	e5943010 	ldr	r3, [r4, #16]
    44f4:	e1a01205 	lsl	r1, r5, #4
    44f8:	e6bf3f33 	rev	r3, r3
    44fc:	e0843003 	add	r3, r4, r3
    4500:	e1a08000 	mov	r8, r0
    4504:	e0832001 	add	r2, r3, r1
    4508:	e7933205 	ldr	r3, [r3, r5, lsl #4]
    450c:	e592c004 	ldr	ip, [r2, #4]
    4510:	e6bf3f33 	rev	r3, r3
    4514:	e6bfcf3c 	rev	ip, ip
    4518:	e1a09003 	mov	r9, r3
    451c:	e180200c 	orr	r2, r0, ip
    4520:	e1c620f0 	strd	r2, [r6]
    4524:	e5943010 	ldr	r3, [r4, #16]
    4528:	e6bf3f33 	rev	r3, r3
    452c:	e0844003 	add	r4, r4, r3
    4530:	e0841001 	add	r1, r4, r1
    4534:	e5913008 	ldr	r3, [r1, #8]
    4538:	e6bf3f33 	rev	r3, r3
    453c:	e1a0b003 	mov	fp, r3
    4540:	e591300c 	ldr	r3, [r1, #12]
    4544:	e6bf3f33 	rev	r3, r3
    4548:	e180a003 	orr	sl, r0, r3
    454c:	e1c7a0f0 	strd	sl, [r7]
    4550:	e8bd8ff8 	pop	{r3, r4, r5, r6, r7, r8, r9, sl, fp, pc}

00004554 <fdt_num_mem_rsv>:
    4554:	e92d0070 	push	{r4, r5, r6}
    4558:	e3a01000 	mov	r1, #0
    455c:	e590c010 	ldr	ip, [r0, #16]
    4560:	e6bfcf3c 	rev	ip, ip
    4564:	ea000000 	b	456c <fdt_num_mem_rsv+0x18>
    4568:	e2811001 	add	r1, r1, #1
    456c:	e0803201 	add	r3, r0, r1, lsl #4
    4570:	e3a04000 	mov	r4, #0
    4574:	e083300c 	add	r3, r3, ip
    4578:	e5932008 	ldr	r2, [r3, #8]
    457c:	e593600c 	ldr	r6, [r3, #12]
    4580:	e6bf2f32 	rev	r2, r2
    4584:	e6bf6f36 	rev	r6, r6
    4588:	e1a05002 	mov	r5, r2
    458c:	e1842006 	orr	r2, r4, r6
    4590:	e1a03005 	mov	r3, r5
    4594:	e1926003 	orrs	r6, r2, r3
    4598:	1afffff2 	bne	4568 <fdt_num_mem_rsv+0x14>
    459c:	e1a00001 	mov	r0, r1
    45a0:	e8bd0070 	pop	{r4, r5, r6}
    45a4:	e12fff1e 	bx	lr

000045a8 <fdt_subnode_offset_namelen>:
    45a8:	e92d45f0 	push	{r4, r5, r6, r7, r8, sl, lr}
    45ac:	e24dd00c 	sub	sp, sp, #12
    45b0:	e1a05000 	mov	r5, r0
    45b4:	e1a04001 	mov	r4, r1
    45b8:	e1a06002 	mov	r6, r2
    45bc:	e1a07003 	mov	r7, r3
    45c0:	eb0002de 	bl	5140 <fdt_check_header>
    45c4:	e3500000 	cmp	r0, #0
    45c8:	1a00001d 	bne	4644 <fdt_subnode_offset_namelen+0x9c>
    45cc:	e3540000 	cmp	r4, #0
    45d0:	e58d0004 	str	r0, [sp, #4]
    45d4:	a287a001 	addge	sl, r7, #1
    45d8:	ba000018 	blt	4640 <fdt_subnode_offset_namelen+0x98>
    45dc:	e1a01004 	mov	r1, r4
    45e0:	e28d2004 	add	r2, sp, #4
    45e4:	e1a00005 	mov	r0, r5
    45e8:	eb000362 	bl	5378 <fdt_next_node>
    45ec:	e59d3004 	ldr	r3, [sp, #4]
    45f0:	e3500000 	cmp	r0, #0
    45f4:	a3530000 	cmpge	r3, #0
    45f8:	e1a04000 	mov	r4, r0
    45fc:	ba000012 	blt	464c <fdt_subnode_offset_namelen+0xa4>
    4600:	e3530001 	cmp	r3, #1
    4604:	1afffff4 	bne	45dc <fdt_subnode_offset_namelen+0x34>
    4608:	e2841004 	add	r1, r4, #4
    460c:	e1a0200a 	mov	r2, sl
    4610:	e1a00005 	mov	r0, r5
    4614:	eb0002e6 	bl	51b4 <fdt_offset_ptr>
    4618:	e1a01006 	mov	r1, r6
    461c:	e1a02007 	mov	r2, r7
    4620:	e2508000 	subs	r8, r0, #0
    4624:	0affffec 	beq	45dc <fdt_subnode_offset_namelen+0x34>
    4628:	ebfffc68 	bl	37d0 <memcmp>
    462c:	e3500000 	cmp	r0, #0
    4630:	1affffe9 	bne	45dc <fdt_subnode_offset_namelen+0x34>
    4634:	e7d83007 	ldrb	r3, [r8, r7]
    4638:	e3530000 	cmp	r3, #0
    463c:	1a000006 	bne	465c <fdt_subnode_offset_namelen+0xb4>
    4640:	e1a00004 	mov	r0, r4
    4644:	e28dd00c 	add	sp, sp, #12
    4648:	e8bd85f0 	pop	{r4, r5, r6, r7, r8, sl, pc}
    464c:	e3530000 	cmp	r3, #0
    4650:	b3e00000 	mvnlt	r0, #0
    4654:	aafffff9 	bge	4640 <fdt_subnode_offset_namelen+0x98>
    4658:	eafffff9 	b	4644 <fdt_subnode_offset_namelen+0x9c>
    465c:	e1a00006 	mov	r0, r6
    4660:	e3a01040 	mov	r1, #64	; 0x40
    4664:	e1a02007 	mov	r2, r7
    4668:	ebfffc6d 	bl	3824 <memchr>
    466c:	e3500000 	cmp	r0, #0
    4670:	1affffd9 	bne	45dc <fdt_subnode_offset_namelen+0x34>
    4674:	e7d83007 	ldrb	r3, [r8, r7]
    4678:	e3530040 	cmp	r3, #64	; 0x40
    467c:	1affffd6 	bne	45dc <fdt_subnode_offset_namelen+0x34>
    4680:	eaffffee 	b	4640 <fdt_subnode_offset_namelen+0x98>

00004684 <fdt_subnode_offset>:
    4684:	e92d4070 	push	{r4, r5, r6, lr}
    4688:	e1a05000 	mov	r5, r0
    468c:	e1a00002 	mov	r0, r2
    4690:	e1a04002 	mov	r4, r2
    4694:	e1a06001 	mov	r6, r1
    4698:	ebfffc44 	bl	37b0 <strlen>
    469c:	e1a01006 	mov	r1, r6
    46a0:	e1a02004 	mov	r2, r4
    46a4:	e1a03000 	mov	r3, r0
    46a8:	e1a00005 	mov	r0, r5
    46ac:	e8bd4070 	pop	{r4, r5, r6, lr}
    46b0:	eaffffbc 	b	45a8 <fdt_subnode_offset_namelen>

000046b4 <fdt_get_name>:
    46b4:	e92d40f8 	push	{r3, r4, r5, r6, r7, lr}
    46b8:	e1a04000 	mov	r4, r0
    46bc:	e5907008 	ldr	r7, [r0, #8]
    46c0:	e1a05001 	mov	r5, r1
    46c4:	e1a06002 	mov	r6, r2
    46c8:	eb00029c 	bl	5140 <fdt_check_header>
    46cc:	e6bf7f37 	rev	r7, r7
    46d0:	e3500000 	cmp	r0, #0
    46d4:	0a000004 	beq	46ec <fdt_get_name+0x38>
    46d8:	e3560000 	cmp	r6, #0
    46dc:	15860000 	strne	r0, [r6]
    46e0:	01a00006 	moveq	r0, r6
    46e4:	13a00000 	movne	r0, #0
    46e8:	e8bd80f8 	pop	{r3, r4, r5, r6, r7, pc}
    46ec:	e1a00004 	mov	r0, r4
    46f0:	e1a01005 	mov	r1, r5
    46f4:	eb0002ff 	bl	52f8 <_fdt_check_node_offset>
    46f8:	e3500000 	cmp	r0, #0
    46fc:	bafffff5 	blt	46d8 <fdt_get_name+0x24>
    4700:	e0875005 	add	r5, r7, r5
    4704:	e3560000 	cmp	r6, #0
    4708:	e0844005 	add	r4, r4, r5
    470c:	e2844004 	add	r4, r4, #4
    4710:	0a000002 	beq	4720 <fdt_get_name+0x6c>
    4714:	e1a00004 	mov	r0, r4
    4718:	ebfffc24 	bl	37b0 <strlen>
    471c:	e5860000 	str	r0, [r6]
    4720:	e1a00004 	mov	r0, r4
    4724:	e8bd80f8 	pop	{r3, r4, r5, r6, r7, pc}

00004728 <fdt_first_property_offset>:
    4728:	e92d4010 	push	{r4, lr}
    472c:	e1a04000 	mov	r4, r0
    4730:	eb0002f0 	bl	52f8 <_fdt_check_node_offset>
    4734:	e2501000 	subs	r1, r0, #0
    4738:	b8bd8010 	poplt	{r4, pc}
    473c:	e1a00004 	mov	r0, r4
    4740:	e8bd4010 	pop	{r4, lr}
    4744:	eaffff45 	b	4460 <_nextprop>

00004748 <fdt_next_property_offset>:
    4748:	e92d4010 	push	{r4, lr}
    474c:	e1a04000 	mov	r4, r0
    4750:	eb0002f8 	bl	5338 <_fdt_check_prop_offset>
    4754:	e2501000 	subs	r1, r0, #0
    4758:	b8bd8010 	poplt	{r4, pc}
    475c:	e1a00004 	mov	r0, r4
    4760:	e8bd4010 	pop	{r4, lr}
    4764:	eaffff3d 	b	4460 <_nextprop>

00004768 <fdt_get_property_by_offset>:
    4768:	e92d4070 	push	{r4, r5, r6, lr}
    476c:	e1a04000 	mov	r4, r0
    4770:	e1a05001 	mov	r5, r1
    4774:	e1a06002 	mov	r6, r2
    4778:	eb0002ee 	bl	5338 <_fdt_check_prop_offset>
    477c:	e3500000 	cmp	r0, #0
    4780:	ba000009 	blt	47ac <fdt_get_property_by_offset+0x44>
    4784:	e3560000 	cmp	r6, #0
    4788:	e5940008 	ldr	r0, [r4, #8]
    478c:	e6bf0f30 	rev	r0, r0
    4790:	e0805005 	add	r5, r0, r5
    4794:	e0840005 	add	r0, r4, r5
    4798:	08bd8070 	popeq	{r4, r5, r6, pc}
    479c:	e5903004 	ldr	r3, [r0, #4]
    47a0:	e6bf3f33 	rev	r3, r3
    47a4:	e5863000 	str	r3, [r6]
    47a8:	e8bd8070 	pop	{r4, r5, r6, pc}
    47ac:	e3560000 	cmp	r6, #0
    47b0:	15860000 	strne	r0, [r6]
    47b4:	13a00000 	movne	r0, #0
    47b8:	18bd8070 	popne	{r4, r5, r6, pc}
    47bc:	e1a00006 	mov	r0, r6
    47c0:	e8bd8070 	pop	{r4, r5, r6, pc}

000047c4 <fdt_get_property_namelen>:
    47c4:	e92d47f0 	push	{r4, r5, r6, r7, r8, r9, sl, lr}
    47c8:	e1a04000 	mov	r4, r0
    47cc:	e1a05002 	mov	r5, r2
    47d0:	e1a0a003 	mov	sl, r3
    47d4:	e59d8020 	ldr	r8, [sp, #32]
    47d8:	ebffffd2 	bl	4728 <fdt_first_property_offset>
    47dc:	e2506000 	subs	r6, r0, #0
    47e0:	aa000005 	bge	47fc <fdt_get_property_namelen+0x38>
    47e4:	ea00001b 	b	4858 <fdt_get_property_namelen+0x94>
    47e8:	e1a01006 	mov	r1, r6
    47ec:	e1a00004 	mov	r0, r4
    47f0:	ebffffd4 	bl	4748 <fdt_next_property_offset>
    47f4:	e2506000 	subs	r6, r0, #0
    47f8:	ba000016 	blt	4858 <fdt_get_property_namelen+0x94>
    47fc:	e1a02008 	mov	r2, r8
    4800:	e1a01006 	mov	r1, r6
    4804:	e1a00004 	mov	r0, r4
    4808:	ebffffd6 	bl	4768 <fdt_get_property_by_offset>
    480c:	e2507000 	subs	r7, r0, #0
    4810:	e1a00004 	mov	r0, r4
    4814:	0a00000e 	beq	4854 <fdt_get_property_namelen+0x90>
    4818:	e5971008 	ldr	r1, [r7, #8]
    481c:	e6bf1f31 	rev	r1, r1
    4820:	ebffff25 	bl	44bc <fdt_string>
    4824:	e1a09000 	mov	r9, r0
    4828:	ebfffbe0 	bl	37b0 <strlen>
    482c:	e150000a 	cmp	r0, sl
    4830:	1affffec 	bne	47e8 <fdt_get_property_namelen+0x24>
    4834:	e1a00009 	mov	r0, r9
    4838:	e1a01005 	mov	r1, r5
    483c:	e1a0200a 	mov	r2, sl
    4840:	ebfffbe2 	bl	37d0 <memcmp>
    4844:	e3500000 	cmp	r0, #0
    4848:	1affffe6 	bne	47e8 <fdt_get_property_namelen+0x24>
    484c:	e1a00007 	mov	r0, r7
    4850:	e8bd87f0 	pop	{r4, r5, r6, r7, r8, r9, sl, pc}
    4854:	e3e0600c 	mvn	r6, #12
    4858:	e3580000 	cmp	r8, #0
    485c:	15886000 	strne	r6, [r8]
    4860:	13a07000 	movne	r7, #0
    4864:	01a07008 	moveq	r7, r8
    4868:	e1a00007 	mov	r0, r7
    486c:	e8bd87f0 	pop	{r4, r5, r6, r7, r8, r9, sl, pc}

00004870 <fdt_get_property>:
    4870:	e92d40f0 	push	{r4, r5, r6, r7, lr}
    4874:	e1a06000 	mov	r6, r0
    4878:	e24dd00c 	sub	sp, sp, #12
    487c:	e1a00002 	mov	r0, r2
    4880:	e1a04003 	mov	r4, r3
    4884:	e1a05002 	mov	r5, r2
    4888:	e1a07001 	mov	r7, r1
    488c:	ebfffbc7 	bl	37b0 <strlen>
    4890:	e1a01007 	mov	r1, r7
    4894:	e1a02005 	mov	r2, r5
    4898:	e58d4000 	str	r4, [sp]
    489c:	e1a03000 	mov	r3, r0
    48a0:	e1a00006 	mov	r0, r6
    48a4:	ebffffc6 	bl	47c4 <fdt_get_property_namelen>
    48a8:	e28dd00c 	add	sp, sp, #12
    48ac:	e8bd80f0 	pop	{r4, r5, r6, r7, pc}

000048b0 <fdt_getprop_namelen>:
    48b0:	e52de004 	push	{lr}		; (str lr, [sp, #-4]!)
    48b4:	e24dd00c 	sub	sp, sp, #12
    48b8:	e59dc010 	ldr	ip, [sp, #16]
    48bc:	e58dc000 	str	ip, [sp]
    48c0:	ebffffbf 	bl	47c4 <fdt_get_property_namelen>
    48c4:	e3500000 	cmp	r0, #0
    48c8:	1280000c 	addne	r0, r0, #12
    48cc:	e28dd00c 	add	sp, sp, #12
    48d0:	e8bd8000 	pop	{pc}

000048d4 <fdt_getprop_by_offset>:
    48d4:	e92d4070 	push	{r4, r5, r6, lr}
    48d8:	e1a04002 	mov	r4, r2
    48dc:	e1a02003 	mov	r2, r3
    48e0:	e1a05000 	mov	r5, r0
    48e4:	ebffff9f 	bl	4768 <fdt_get_property_by_offset>
    48e8:	e2506000 	subs	r6, r0, #0
    48ec:	0a000008 	beq	4914 <fdt_getprop_by_offset+0x40>
    48f0:	e3540000 	cmp	r4, #0
    48f4:	0a000004 	beq	490c <fdt_getprop_by_offset+0x38>
    48f8:	e5961008 	ldr	r1, [r6, #8]
    48fc:	e1a00005 	mov	r0, r5
    4900:	e6bf1f31 	rev	r1, r1
    4904:	ebfffeec 	bl	44bc <fdt_string>
    4908:	e5840000 	str	r0, [r4]
    490c:	e286000c 	add	r0, r6, #12
    4910:	e8bd8070 	pop	{r4, r5, r6, pc}
    4914:	e1a00006 	mov	r0, r6
    4918:	e8bd8070 	pop	{r4, r5, r6, pc}

0000491c <fdt_getprop>:
    491c:	e92d40f0 	push	{r4, r5, r6, r7, lr}
    4920:	e1a06000 	mov	r6, r0
    4924:	e24dd00c 	sub	sp, sp, #12
    4928:	e1a00002 	mov	r0, r2
    492c:	e1a04003 	mov	r4, r3
    4930:	e1a05002 	mov	r5, r2
    4934:	e1a07001 	mov	r7, r1
    4938:	ebfffb9c 	bl	37b0 <strlen>
    493c:	e1a01007 	mov	r1, r7
    4940:	e1a02005 	mov	r2, r5
    4944:	e58d4000 	str	r4, [sp]
    4948:	e1a03000 	mov	r3, r0
    494c:	e1a00006 	mov	r0, r6
    4950:	ebffffd6 	bl	48b0 <fdt_getprop_namelen>
    4954:	e28dd00c 	add	sp, sp, #12
    4958:	e8bd80f0 	pop	{r4, r5, r6, r7, pc}

0000495c <fdt_get_phandle>:
    495c:	e59f2070 	ldr	r2, [pc, #112]	; 49d4 <fdt_get_phandle+0x78>
    4960:	e92d4030 	push	{r4, r5, lr}
    4964:	e24dd00c 	sub	sp, sp, #12
    4968:	e08f2002 	add	r2, pc, r2
    496c:	e28d3004 	add	r3, sp, #4
    4970:	e1a05000 	mov	r5, r0
    4974:	e1a04001 	mov	r4, r1
    4978:	ebffffe7 	bl	491c <fdt_getprop>
    497c:	e3500000 	cmp	r0, #0
    4980:	0a000002 	beq	4990 <fdt_get_phandle+0x34>
    4984:	e59d3004 	ldr	r3, [sp, #4]
    4988:	e3530004 	cmp	r3, #4
    498c:	0a00000d 	beq	49c8 <fdt_get_phandle+0x6c>
    4990:	e59f2040 	ldr	r2, [pc, #64]	; 49d8 <fdt_get_phandle+0x7c>
    4994:	e1a00005 	mov	r0, r5
    4998:	e1a01004 	mov	r1, r4
    499c:	e28d3004 	add	r3, sp, #4
    49a0:	e08f2002 	add	r2, pc, r2
    49a4:	ebffffdc 	bl	491c <fdt_getprop>
    49a8:	e3500000 	cmp	r0, #0
    49ac:	0a000003 	beq	49c0 <fdt_get_phandle+0x64>
    49b0:	e59d3004 	ldr	r3, [sp, #4]
    49b4:	e3530004 	cmp	r3, #4
    49b8:	13a00000 	movne	r0, #0
    49bc:	0a000001 	beq	49c8 <fdt_get_phandle+0x6c>
    49c0:	e28dd00c 	add	sp, sp, #12
    49c4:	e8bd8030 	pop	{r4, r5, pc}
    49c8:	e5900000 	ldr	r0, [r0]
    49cc:	e6bf0f30 	rev	r0, r0
    49d0:	eafffffa 	b	49c0 <fdt_get_phandle+0x64>
    49d4:	00001e7c 	.word	0x00001e7c
    49d8:	00001e4c 	.word	0x00001e4c

000049dc <fdt_get_alias_namelen>:
    49dc:	e92d4070 	push	{r4, r5, r6, lr}
    49e0:	e1a05001 	mov	r5, r1
    49e4:	e59f103c 	ldr	r1, [pc, #60]	; 4a28 <fdt_get_alias_namelen+0x4c>
    49e8:	e24dd008 	sub	sp, sp, #8
    49ec:	e1a06000 	mov	r6, r0
    49f0:	e1a04002 	mov	r4, r2
    49f4:	e08f1001 	add	r1, pc, r1
    49f8:	eb00000b 	bl	4a2c <fdt_path_offset>
    49fc:	e2501000 	subs	r1, r0, #0
    4a00:	b3a00000 	movlt	r0, #0
    4a04:	ba000005 	blt	4a20 <fdt_get_alias_namelen+0x44>
    4a08:	e1a00006 	mov	r0, r6
    4a0c:	e1a02005 	mov	r2, r5
    4a10:	e1a03004 	mov	r3, r4
    4a14:	e3a0c000 	mov	ip, #0
    4a18:	e58dc000 	str	ip, [sp]
    4a1c:	ebffffa3 	bl	48b0 <fdt_getprop_namelen>
    4a20:	e28dd008 	add	sp, sp, #8
    4a24:	e8bd8070 	pop	{r4, r5, r6, pc}
    4a28:	00001e08 	.word	0x00001e08

00004a2c <fdt_path_offset>:
    4a2c:	e92d40f8 	push	{r3, r4, r5, r6, r7, lr}
    4a30:	e1a05000 	mov	r5, r0
    4a34:	e1a00001 	mov	r0, r1
    4a38:	e1a04001 	mov	r4, r1
    4a3c:	ebfffb5b 	bl	37b0 <strlen>
    4a40:	e1a06000 	mov	r6, r0
    4a44:	e1a00005 	mov	r0, r5
    4a48:	eb0001bc 	bl	5140 <fdt_check_header>
    4a4c:	e3500000 	cmp	r0, #0
    4a50:	18bd80f8 	popne	{r3, r4, r5, r6, r7, pc}
    4a54:	e5d43000 	ldrb	r3, [r4]
    4a58:	e0846006 	add	r6, r4, r6
    4a5c:	e353002f 	cmp	r3, #47	; 0x2f
    4a60:	0a00002b 	beq	4b14 <fdt_path_offset+0xe8>
    4a64:	e1a00004 	mov	r0, r4
    4a68:	e3a0102f 	mov	r1, #47	; 0x2f
    4a6c:	ebfffb78 	bl	3854 <strchr>
    4a70:	e1a01004 	mov	r1, r4
    4a74:	e3500000 	cmp	r0, #0
    4a78:	11a04000 	movne	r4, r0
    4a7c:	01a04006 	moveq	r4, r6
    4a80:	e1a00005 	mov	r0, r5
    4a84:	e0612004 	rsb	r2, r1, r4
    4a88:	ebffffd3 	bl	49dc <fdt_get_alias_namelen>
    4a8c:	e2501000 	subs	r1, r0, #0
    4a90:	03e00004 	mvneq	r0, #4
    4a94:	08bd80f8 	popeq	{r3, r4, r5, r6, r7, pc}
    4a98:	e1a00005 	mov	r0, r5
    4a9c:	ebffffe2 	bl	4a2c <fdt_path_offset>
    4aa0:	e5d43000 	ldrb	r3, [r4]
    4aa4:	e1a07000 	mov	r7, r0
    4aa8:	e3530000 	cmp	r3, #0
    4aac:	0a00001c 	beq	4b24 <fdt_path_offset+0xf8>
    4ab0:	e353002f 	cmp	r3, #47	; 0x2f
    4ab4:	01a03004 	moveq	r3, r4
    4ab8:	1a000006 	bne	4ad8 <fdt_path_offset+0xac>
    4abc:	e2833001 	add	r3, r3, #1
    4ac0:	e5d32000 	ldrb	r2, [r3]
    4ac4:	e1a04003 	mov	r4, r3
    4ac8:	e352002f 	cmp	r2, #47	; 0x2f
    4acc:	0afffffa 	beq	4abc <fdt_path_offset+0x90>
    4ad0:	e3520000 	cmp	r2, #0
    4ad4:	0a000010 	beq	4b1c <fdt_path_offset+0xf0>
    4ad8:	e1a00004 	mov	r0, r4
    4adc:	e3a0102f 	mov	r1, #47	; 0x2f
    4ae0:	ebfffb5b 	bl	3854 <strchr>
    4ae4:	e1a02004 	mov	r2, r4
    4ae8:	e1a01007 	mov	r1, r7
    4aec:	e3500000 	cmp	r0, #0
    4af0:	11a04000 	movne	r4, r0
    4af4:	01a04006 	moveq	r4, r6
    4af8:	e1a00005 	mov	r0, r5
    4afc:	e0623004 	rsb	r3, r2, r4
    4b00:	ebfffea8 	bl	45a8 <fdt_subnode_offset_namelen>
    4b04:	e2507000 	subs	r7, r0, #0
    4b08:	ba000003 	blt	4b1c <fdt_path_offset+0xf0>
    4b0c:	e5d43000 	ldrb	r3, [r4]
    4b10:	eaffffe4 	b	4aa8 <fdt_path_offset+0x7c>
    4b14:	e1a07000 	mov	r7, r0
    4b18:	eaffffe2 	b	4aa8 <fdt_path_offset+0x7c>
    4b1c:	e1a00007 	mov	r0, r7
    4b20:	e8bd80f8 	pop	{r3, r4, r5, r6, r7, pc}
    4b24:	e1a00007 	mov	r0, r7
    4b28:	e8bd80f8 	pop	{r3, r4, r5, r6, r7, pc}

00004b2c <fdt_get_alias>:
    4b2c:	e92d4038 	push	{r3, r4, r5, lr}
    4b30:	e1a05000 	mov	r5, r0
    4b34:	e1a00001 	mov	r0, r1
    4b38:	e1a04001 	mov	r4, r1
    4b3c:	ebfffb1b 	bl	37b0 <strlen>
    4b40:	e1a01004 	mov	r1, r4
    4b44:	e1a02000 	mov	r2, r0
    4b48:	e1a00005 	mov	r0, r5
    4b4c:	e8bd4038 	pop	{r3, r4, r5, lr}
    4b50:	eaffffa1 	b	49dc <fdt_get_alias_namelen>

00004b54 <fdt_get_path>:
    4b54:	e92d4ff0 	push	{r4, r5, r6, r7, r8, r9, sl, fp, lr}
    4b58:	e24dd00c 	sub	sp, sp, #12
    4b5c:	e1a06000 	mov	r6, r0
    4b60:	e1a05001 	mov	r5, r1
    4b64:	e1a04002 	mov	r4, r2
    4b68:	e1a0b003 	mov	fp, r3
    4b6c:	eb000173 	bl	5140 <fdt_check_header>
    4b70:	e2509000 	subs	r9, r0, #0
    4b74:	1a000040 	bne	4c7c <fdt_get_path+0x128>
    4b78:	e35b0001 	cmp	fp, #1
    4b7c:	da00004a 	ble	4cac <fdt_get_path+0x158>
    4b80:	e3550000 	cmp	r5, #0
    4b84:	e58d9000 	str	r9, [sp]
    4b88:	ba000043 	blt	4c9c <fdt_get_path+0x148>
    4b8c:	e1a01009 	mov	r1, r9
    4b90:	e1a08009 	mov	r8, r9
    4b94:	e1a07009 	mov	r7, r9
    4b98:	e1a0a009 	mov	sl, r9
    4b9c:	e15a0001 	cmp	sl, r1
    4ba0:	aa000018 	bge	4c08 <fdt_get_path+0xb4>
    4ba4:	e1580005 	cmp	r8, r5
    4ba8:	0a00002b 	beq	4c5c <fdt_get_path+0x108>
    4bac:	e1a01008 	mov	r1, r8
    4bb0:	e1a00006 	mov	r0, r6
    4bb4:	e1a0200d 	mov	r2, sp
    4bb8:	eb0001ee 	bl	5378 <fdt_next_node>
    4bbc:	e1550000 	cmp	r5, r0
    4bc0:	a3500000 	cmpge	r0, #0
    4bc4:	e1a08000 	mov	r8, r0
    4bc8:	ba00002e 	blt	4c88 <fdt_get_path+0x134>
    4bcc:	e59d1000 	ldr	r1, [sp]
    4bd0:	e15a0001 	cmp	sl, r1
    4bd4:	dafffff0 	ble	4b9c <fdt_get_path+0x48>
    4bd8:	e0843007 	add	r3, r4, r7
    4bdc:	e2433001 	sub	r3, r3, #1
    4be0:	e2477001 	sub	r7, r7, #1
    4be4:	e5532001 	ldrb	r2, [r3, #-1]
    4be8:	e352002f 	cmp	r2, #47	; 0x2f
    4bec:	1afffffa 	bne	4bdc <fdt_get_path+0x88>
    4bf0:	e24aa001 	sub	sl, sl, #1
    4bf4:	e15a0001 	cmp	sl, r1
    4bf8:	cafffff6 	bgt	4bd8 <fdt_get_path+0x84>
    4bfc:	e1a0a001 	mov	sl, r1
    4c00:	e15a0001 	cmp	sl, r1
    4c04:	baffffe6 	blt	4ba4 <fdt_get_path+0x50>
    4c08:	e1a01008 	mov	r1, r8
    4c0c:	e1a00006 	mov	r0, r6
    4c10:	e28d2004 	add	r2, sp, #4
    4c14:	ebfffea6 	bl	46b4 <fdt_get_name>
    4c18:	e2501000 	subs	r1, r0, #0
    4c1c:	0a000020 	beq	4ca4 <fdt_get_path+0x150>
    4c20:	e59d2004 	ldr	r2, [sp, #4]
    4c24:	e0873002 	add	r3, r7, r2
    4c28:	e2833001 	add	r3, r3, #1
    4c2c:	e15b0003 	cmp	fp, r3
    4c30:	baffffdb 	blt	4ba4 <fdt_get_path+0x50>
    4c34:	e0840007 	add	r0, r4, r7
    4c38:	e28aa001 	add	sl, sl, #1
    4c3c:	ebfffa94 	bl	3694 <memcpy>
    4c40:	e59d3004 	ldr	r3, [sp, #4]
    4c44:	e1580005 	cmp	r8, r5
    4c48:	e3a0202f 	mov	r2, #47	; 0x2f
    4c4c:	e0873003 	add	r3, r7, r3
    4c50:	e2837001 	add	r7, r3, #1
    4c54:	e7c42003 	strb	r2, [r4, r3]
    4c58:	1affffd3 	bne	4bac <fdt_get_path+0x58>
    4c5c:	e59d3000 	ldr	r3, [sp]
    4c60:	e2833001 	add	r3, r3, #1
    4c64:	e15a0003 	cmp	sl, r3
    4c68:	ba00000f 	blt	4cac <fdt_get_path+0x158>
    4c6c:	e3570001 	cmp	r7, #1
    4c70:	e3a03000 	mov	r3, #0
    4c74:	c2477001 	subgt	r7, r7, #1
    4c78:	e7c43007 	strb	r3, [r4, r7]
    4c7c:	e1a00009 	mov	r0, r9
    4c80:	e28dd00c 	add	sp, sp, #12
    4c84:	e8bd8ff0 	pop	{r4, r5, r6, r7, r8, r9, sl, fp, pc}
    4c88:	e3700004 	cmn	r0, #4
    4c8c:	11a09000 	movne	r9, r0
    4c90:	03e0900a 	mvneq	r9, #10
    4c94:	e3700001 	cmn	r0, #1
    4c98:	bafffff7 	blt	4c7c <fdt_get_path+0x128>
    4c9c:	e3e09003 	mvn	r9, #3
    4ca0:	eafffff5 	b	4c7c <fdt_get_path+0x128>
    4ca4:	e59d9004 	ldr	r9, [sp, #4]
    4ca8:	eafffff3 	b	4c7c <fdt_get_path+0x128>
    4cac:	e3e09002 	mvn	r9, #2
    4cb0:	eafffff1 	b	4c7c <fdt_get_path+0x128>

00004cb4 <fdt_supernode_atdepth_offset>:
    4cb4:	e92d41f0 	push	{r4, r5, r6, r7, r8, lr}
    4cb8:	e24dd008 	sub	sp, sp, #8
    4cbc:	e1a08003 	mov	r8, r3
    4cc0:	e1a06000 	mov	r6, r0
    4cc4:	e1a04001 	mov	r4, r1
    4cc8:	e1a05002 	mov	r5, r2
    4ccc:	eb00011b 	bl	5140 <fdt_check_header>
    4cd0:	e2503000 	subs	r3, r0, #0
    4cd4:	1a00001a 	bne	4d44 <fdt_supernode_atdepth_offset+0x90>
    4cd8:	e3550000 	cmp	r5, #0
    4cdc:	b3e03000 	mvnlt	r3, #0
    4ce0:	ba000017 	blt	4d44 <fdt_supernode_atdepth_offset+0x90>
    4ce4:	e3540000 	cmp	r4, #0
    4ce8:	e58d3004 	str	r3, [sp, #4]
    4cec:	ba00001c 	blt	4d64 <fdt_supernode_atdepth_offset+0xb0>
    4cf0:	e1a0c003 	mov	ip, r3
    4cf4:	e3e0700c 	mvn	r7, #12
    4cf8:	ea000005 	b	4d14 <fdt_supernode_atdepth_offset+0x60>
    4cfc:	eb00019d 	bl	5378 <fdt_next_node>
    4d00:	e1540000 	cmp	r4, r0
    4d04:	a3500000 	cmpge	r0, #0
    4d08:	e1a03000 	mov	r3, r0
    4d0c:	ba00000f 	blt	4d50 <fdt_supernode_atdepth_offset+0x9c>
    4d10:	e59dc004 	ldr	ip, [sp, #4]
    4d14:	e155000c 	cmp	r5, ip
    4d18:	e1a00006 	mov	r0, r6
    4d1c:	e1a01003 	mov	r1, r3
    4d20:	e28d2004 	add	r2, sp, #4
    4d24:	01a07003 	moveq	r7, r3
    4d28:	e1540003 	cmp	r4, r3
    4d2c:	1afffff2 	bne	4cfc <fdt_supernode_atdepth_offset+0x48>
    4d30:	e3580000 	cmp	r8, #0
    4d34:	1588c000 	strne	ip, [r8]
    4d38:	e155000c 	cmp	r5, ip
    4d3c:	d1a03007 	movle	r3, r7
    4d40:	c3e03000 	mvngt	r3, #0
    4d44:	e1a00003 	mov	r0, r3
    4d48:	e28dd008 	add	sp, sp, #8
    4d4c:	e8bd81f0 	pop	{r4, r5, r6, r7, r8, pc}
    4d50:	e3700001 	cmn	r0, #1
    4d54:	aa000002 	bge	4d64 <fdt_supernode_atdepth_offset+0xb0>
    4d58:	e3700004 	cmn	r0, #4
    4d5c:	03e0300a 	mvneq	r3, #10
    4d60:	eafffff7 	b	4d44 <fdt_supernode_atdepth_offset+0x90>
    4d64:	e3e03003 	mvn	r3, #3
    4d68:	eafffff5 	b	4d44 <fdt_supernode_atdepth_offset+0x90>

00004d6c <fdt_node_depth>:
    4d6c:	e52de004 	push	{lr}		; (str lr, [sp, #-4]!)
    4d70:	e24dd00c 	sub	sp, sp, #12
    4d74:	e3a02000 	mov	r2, #0
    4d78:	e28d3004 	add	r3, sp, #4
    4d7c:	ebffffcc 	bl	4cb4 <fdt_supernode_atdepth_offset>
    4d80:	e3500000 	cmp	r0, #0
    4d84:	059d0004 	ldreq	r0, [sp, #4]
    4d88:	0a000000 	beq	4d90 <fdt_node_depth+0x24>
    4d8c:	a3e0000c 	mvnge	r0, #12
    4d90:	e28dd00c 	add	sp, sp, #12
    4d94:	e8bd8000 	pop	{pc}

00004d98 <fdt_parent_offset>:
    4d98:	e92d4070 	push	{r4, r5, r6, lr}
    4d9c:	e1a05000 	mov	r5, r0
    4da0:	e1a04001 	mov	r4, r1
    4da4:	ebfffff0 	bl	4d6c <fdt_node_depth>
    4da8:	e2502000 	subs	r2, r0, #0
    4dac:	b8bd8070 	poplt	{r4, r5, r6, pc}
    4db0:	e1a00005 	mov	r0, r5
    4db4:	e1a01004 	mov	r1, r4
    4db8:	e2422001 	sub	r2, r2, #1
    4dbc:	e3a03000 	mov	r3, #0
    4dc0:	e8bd4070 	pop	{r4, r5, r6, lr}
    4dc4:	eaffffba 	b	4cb4 <fdt_supernode_atdepth_offset>

00004dc8 <fdt_node_offset_by_prop_value>:
    4dc8:	e92d45f0 	push	{r4, r5, r6, r7, r8, sl, lr}
    4dcc:	e24dd00c 	sub	sp, sp, #12
    4dd0:	e1a07002 	mov	r7, r2
    4dd4:	e1a05000 	mov	r5, r0
    4dd8:	e1a0a001 	mov	sl, r1
    4ddc:	e1a08003 	mov	r8, r3
    4de0:	e59d6028 	ldr	r6, [sp, #40]	; 0x28
    4de4:	eb0000d5 	bl	5140 <fdt_check_header>
    4de8:	e2502000 	subs	r2, r0, #0
    4dec:	0a000002 	beq	4dfc <fdt_node_offset_by_prop_value+0x34>
    4df0:	e1a00002 	mov	r0, r2
    4df4:	e28dd00c 	add	sp, sp, #12
    4df8:	e8bd85f0 	pop	{r4, r5, r6, r7, r8, sl, pc}
    4dfc:	e1a00005 	mov	r0, r5
    4e00:	e1a0100a 	mov	r1, sl
    4e04:	eb00015b 	bl	5378 <fdt_next_node>
    4e08:	e2504000 	subs	r4, r0, #0
    4e0c:	aa000006 	bge	4e2c <fdt_node_offset_by_prop_value+0x64>
    4e10:	ea000014 	b	4e68 <fdt_node_offset_by_prop_value+0xa0>
    4e14:	e1a01004 	mov	r1, r4
    4e18:	e1a00005 	mov	r0, r5
    4e1c:	e3a02000 	mov	r2, #0
    4e20:	eb000154 	bl	5378 <fdt_next_node>
    4e24:	e2504000 	subs	r4, r0, #0
    4e28:	ba00000e 	blt	4e68 <fdt_node_offset_by_prop_value+0xa0>
    4e2c:	e1a01004 	mov	r1, r4
    4e30:	e1a02007 	mov	r2, r7
    4e34:	e28d3004 	add	r3, sp, #4
    4e38:	e1a00005 	mov	r0, r5
    4e3c:	ebfffeb6 	bl	491c <fdt_getprop>
    4e40:	e3500000 	cmp	r0, #0
    4e44:	0afffff2 	beq	4e14 <fdt_node_offset_by_prop_value+0x4c>
    4e48:	e59d3004 	ldr	r3, [sp, #4]
    4e4c:	e1530006 	cmp	r3, r6
    4e50:	1affffef 	bne	4e14 <fdt_node_offset_by_prop_value+0x4c>
    4e54:	e1a01008 	mov	r1, r8
    4e58:	e1a02006 	mov	r2, r6
    4e5c:	ebfffa5b 	bl	37d0 <memcmp>
    4e60:	e3500000 	cmp	r0, #0
    4e64:	1affffea 	bne	4e14 <fdt_node_offset_by_prop_value+0x4c>
    4e68:	e1a02004 	mov	r2, r4
    4e6c:	eaffffdf 	b	4df0 <fdt_node_offset_by_prop_value+0x28>

00004e70 <fdt_node_offset_by_phandle>:
    4e70:	e2413001 	sub	r3, r1, #1
    4e74:	e3730003 	cmn	r3, #3
    4e78:	e92d4070 	push	{r4, r5, r6, lr}
    4e7c:	83e02005 	mvnhi	r2, #5
    4e80:	e1a06001 	mov	r6, r1
    4e84:	e1a05000 	mov	r5, r0
    4e88:	8a000002 	bhi	4e98 <fdt_node_offset_by_phandle+0x28>
    4e8c:	eb0000ab 	bl	5140 <fdt_check_header>
    4e90:	e2502000 	subs	r2, r0, #0
    4e94:	0a000001 	beq	4ea0 <fdt_node_offset_by_phandle+0x30>
    4e98:	e1a00002 	mov	r0, r2
    4e9c:	e8bd8070 	pop	{r4, r5, r6, pc}
    4ea0:	e1a00005 	mov	r0, r5
    4ea4:	e3e01000 	mvn	r1, #0
    4ea8:	ea000007 	b	4ecc <fdt_node_offset_by_phandle+0x5c>
    4eac:	e1a01004 	mov	r1, r4
    4eb0:	e1a00005 	mov	r0, r5
    4eb4:	ebfffea8 	bl	495c <fdt_get_phandle>
    4eb8:	e1a01004 	mov	r1, r4
    4ebc:	e3a02000 	mov	r2, #0
    4ec0:	e1500006 	cmp	r0, r6
    4ec4:	e1a00005 	mov	r0, r5
    4ec8:	0a000002 	beq	4ed8 <fdt_node_offset_by_phandle+0x68>
    4ecc:	eb000129 	bl	5378 <fdt_next_node>
    4ed0:	e2504000 	subs	r4, r0, #0
    4ed4:	aafffff4 	bge	4eac <fdt_node_offset_by_phandle+0x3c>
    4ed8:	e1a02004 	mov	r2, r4
    4edc:	e1a00002 	mov	r0, r2
    4ee0:	e8bd8070 	pop	{r4, r5, r6, pc}

00004ee4 <fdt_node_check_compatible>:
    4ee4:	e92d41f0 	push	{r4, r5, r6, r7, r8, lr}
    4ee8:	e1a04002 	mov	r4, r2
    4eec:	e59f2094 	ldr	r2, [pc, #148]	; 4f88 <fdt_node_check_compatible+0xa4>
    4ef0:	e24dd008 	sub	sp, sp, #8
    4ef4:	e28d3004 	add	r3, sp, #4
    4ef8:	e08f2002 	add	r2, pc, r2
    4efc:	ebfffe86 	bl	491c <fdt_getprop>
    4f00:	e2505000 	subs	r5, r0, #0
    4f04:	059d0004 	ldreq	r0, [sp, #4]
    4f08:	0a00001a 	beq	4f78 <fdt_node_check_compatible+0x94>
    4f0c:	e1a00004 	mov	r0, r4
    4f10:	e59d6004 	ldr	r6, [sp, #4]
    4f14:	ebfffa25 	bl	37b0 <strlen>
    4f18:	e1560000 	cmp	r6, r0
    4f1c:	e1a07000 	mov	r7, r0
    4f20:	ba000016 	blt	4f80 <fdt_node_check_compatible+0x9c>
    4f24:	e2808001 	add	r8, r0, #1
    4f28:	ea000008 	b	4f50 <fdt_node_check_compatible+0x6c>
    4f2c:	ebfffa3c 	bl	3824 <memchr>
    4f30:	e3500000 	cmp	r0, #0
    4f34:	e0653000 	rsb	r3, r5, r0
    4f38:	e2805001 	add	r5, r0, #1
    4f3c:	0a00000f 	beq	4f80 <fdt_node_check_compatible+0x9c>
    4f40:	e1e03003 	mvn	r3, r3
    4f44:	e0866003 	add	r6, r6, r3
    4f48:	e1570006 	cmp	r7, r6
    4f4c:	ca00000b 	bgt	4f80 <fdt_node_check_compatible+0x9c>
    4f50:	e1a01005 	mov	r1, r5
    4f54:	e1a02008 	mov	r2, r8
    4f58:	e1a00004 	mov	r0, r4
    4f5c:	ebfffa1b 	bl	37d0 <memcmp>
    4f60:	e1a02006 	mov	r2, r6
    4f64:	e3a01000 	mov	r1, #0
    4f68:	e2503000 	subs	r3, r0, #0
    4f6c:	e1a00005 	mov	r0, r5
    4f70:	1affffed 	bne	4f2c <fdt_node_check_compatible+0x48>
    4f74:	e1a00003 	mov	r0, r3
    4f78:	e28dd008 	add	sp, sp, #8
    4f7c:	e8bd81f0 	pop	{r4, r5, r6, r7, r8, pc}
    4f80:	e3a00001 	mov	r0, #1
    4f84:	eafffffb 	b	4f78 <fdt_node_check_compatible+0x94>
    4f88:	00001910 	.word	0x00001910

00004f8c <fdt_node_offset_by_compatible>:
    4f8c:	e92d4070 	push	{r4, r5, r6, lr}
    4f90:	e1a06002 	mov	r6, r2
    4f94:	e1a05000 	mov	r5, r0
    4f98:	e1a04001 	mov	r4, r1
    4f9c:	eb000067 	bl	5140 <fdt_check_header>
    4fa0:	e2502000 	subs	r2, r0, #0
    4fa4:	0a000001 	beq	4fb0 <fdt_node_offset_by_compatible+0x24>
    4fa8:	e1a00002 	mov	r0, r2
    4fac:	e8bd8070 	pop	{r4, r5, r6, pc}
    4fb0:	e1a00005 	mov	r0, r5
    4fb4:	e1a01004 	mov	r1, r4
    4fb8:	ea00000b 	b	4fec <fdt_node_offset_by_compatible+0x60>
    4fbc:	e1a01004 	mov	r1, r4
    4fc0:	e1a02006 	mov	r2, r6
    4fc4:	e1a00005 	mov	r0, r5
    4fc8:	ebffffc5 	bl	4ee4 <fdt_node_check_compatible>
    4fcc:	e1a01004 	mov	r1, r4
    4fd0:	e3a02000 	mov	r2, #0
    4fd4:	e1a03000 	mov	r3, r0
    4fd8:	e3730001 	cmn	r3, #1
    4fdc:	e1a00005 	mov	r0, r5
    4fe0:	ba000007 	blt	5004 <fdt_node_offset_by_compatible+0x78>
    4fe4:	e1530002 	cmp	r3, r2
    4fe8:	0a000002 	beq	4ff8 <fdt_node_offset_by_compatible+0x6c>
    4fec:	eb0000e1 	bl	5378 <fdt_next_node>
    4ff0:	e2504000 	subs	r4, r0, #0
    4ff4:	aafffff0 	bge	4fbc <fdt_node_offset_by_compatible+0x30>
    4ff8:	e1a02004 	mov	r2, r4
    4ffc:	e1a00002 	mov	r0, r2
    5000:	e8bd8070 	pop	{r4, r5, r6, pc}
    5004:	e1a02003 	mov	r2, r3
    5008:	e1a00002 	mov	r0, r2
    500c:	e8bd8070 	pop	{r4, r5, r6, pc}

00005010 <fdt_setprop_inplace>:
    5010:	e92d4010 	push	{r4, lr}
    5014:	e24dd008 	sub	sp, sp, #8
    5018:	e1a04003 	mov	r4, r3
    501c:	e28d3004 	add	r3, sp, #4
    5020:	ebfffe3d 	bl	491c <fdt_getprop>
    5024:	e3500000 	cmp	r0, #0
    5028:	059d0004 	ldreq	r0, [sp, #4]
    502c:	0a000007 	beq	5050 <fdt_setprop_inplace+0x40>
    5030:	e59d2004 	ldr	r2, [sp, #4]
    5034:	e59d3010 	ldr	r3, [sp, #16]
    5038:	e1520003 	cmp	r2, r3
    503c:	13e00002 	mvnne	r0, #2
    5040:	1a000002 	bne	5050 <fdt_setprop_inplace+0x40>
    5044:	e1a01004 	mov	r1, r4
    5048:	ebfff991 	bl	3694 <memcpy>
    504c:	e3a00000 	mov	r0, #0
    5050:	e28dd008 	add	sp, sp, #8
    5054:	e8bd8010 	pop	{r4, pc}

00005058 <fdt_nop_property>:
    5058:	e52de004 	push	{lr}		; (str lr, [sp, #-4]!)
    505c:	e24dd00c 	sub	sp, sp, #12
    5060:	e28d3004 	add	r3, sp, #4
    5064:	ebfffe01 	bl	4870 <fdt_get_property>
    5068:	e3500000 	cmp	r0, #0
    506c:	059d0004 	ldreq	r0, [sp, #4]
    5070:	0a000009 	beq	509c <fdt_nop_property+0x44>
    5074:	e59d3004 	ldr	r3, [sp, #4]
    5078:	e283300c 	add	r3, r3, #12
    507c:	e0803003 	add	r3, r0, r3
    5080:	e1500003 	cmp	r0, r3
    5084:	2a000003 	bcs	5098 <fdt_nop_property+0x40>
    5088:	e3a02301 	mov	r2, #67108864	; 0x4000000
    508c:	e4802004 	str	r2, [r0], #4
    5090:	e1500003 	cmp	r0, r3
    5094:	3afffffc 	bcc	508c <fdt_nop_property+0x34>
    5098:	e3a00000 	mov	r0, #0
    509c:	e28dd00c 	add	sp, sp, #12
    50a0:	e8bd8000 	pop	{pc}

000050a4 <_fdt_node_end_offset>:
    50a4:	e92d4010 	push	{r4, lr}
    50a8:	e3510000 	cmp	r1, #0
    50ac:	e24dd008 	sub	sp, sp, #8
    50b0:	e3a03000 	mov	r3, #0
    50b4:	e1a04000 	mov	r4, r0
    50b8:	e58d3004 	str	r3, [sp, #4]
    50bc:	ba000007 	blt	50e0 <_fdt_node_end_offset+0x3c>
    50c0:	e1a00004 	mov	r0, r4
    50c4:	e28d2004 	add	r2, sp, #4
    50c8:	eb0000aa 	bl	5378 <fdt_next_node>
    50cc:	e59d3004 	ldr	r3, [sp, #4]
    50d0:	e3500000 	cmp	r0, #0
    50d4:	a3530000 	cmpge	r3, #0
    50d8:	e1a01000 	mov	r1, r0
    50dc:	aafffff7 	bge	50c0 <_fdt_node_end_offset+0x1c>
    50e0:	e1a00001 	mov	r0, r1
    50e4:	e28dd008 	add	sp, sp, #8
    50e8:	e8bd8010 	pop	{r4, pc}

000050ec <fdt_nop_node>:
    50ec:	e92d4070 	push	{r4, r5, r6, lr}
    50f0:	e1a06000 	mov	r6, r0
    50f4:	e1a05001 	mov	r5, r1
    50f8:	ebffffe9 	bl	50a4 <_fdt_node_end_offset>
    50fc:	e2504000 	subs	r4, r0, #0
    5100:	ba00000c 	blt	5138 <fdt_nop_node+0x4c>
    5104:	e1a00006 	mov	r0, r6
    5108:	e1a01005 	mov	r1, r5
    510c:	e3a02000 	mov	r2, #0
    5110:	e0654004 	rsb	r4, r5, r4
    5114:	eb000026 	bl	51b4 <fdt_offset_ptr>
    5118:	e0804004 	add	r4, r0, r4
    511c:	e1500004 	cmp	r0, r4
    5120:	2a000003 	bcs	5134 <fdt_nop_node+0x48>
    5124:	e3a03301 	mov	r3, #67108864	; 0x4000000
    5128:	e4803004 	str	r3, [r0], #4
    512c:	e1500004 	cmp	r0, r4
    5130:	3afffffc 	bcc	5128 <fdt_nop_node+0x3c>
    5134:	e3a04000 	mov	r4, #0
    5138:	e1a00004 	mov	r0, r4
    513c:	e8bd8070 	pop	{r4, r5, r6, pc}

00005140 <fdt_check_header>:
    5140:	e30f3eed 	movw	r3, #65261	; 0xfeed
    5144:	e34d300d 	movt	r3, #53261	; 0xd00d
    5148:	e5902000 	ldr	r2, [r0]
    514c:	e6bf2f32 	rev	r2, r2
    5150:	e1520003 	cmp	r2, r3
    5154:	0a000009 	beq	5180 <fdt_check_header+0x40>
    5158:	e3003112 	movw	r3, #274	; 0x112
    515c:	e3423ff2 	movt	r3, #12274	; 0x2ff2
    5160:	e1520003 	cmp	r2, r3
    5164:	1a000010 	bne	51ac <fdt_check_header+0x6c>
    5168:	e5903024 	ldr	r3, [r0, #36]	; 0x24
    516c:	e6bf3f33 	rev	r3, r3
    5170:	e3530000 	cmp	r3, #0
    5174:	03e00006 	mvneq	r0, #6
    5178:	13a00000 	movne	r0, #0
    517c:	e12fff1e 	bx	lr
    5180:	e5903014 	ldr	r3, [r0, #20]
    5184:	e6bf3f33 	rev	r3, r3
    5188:	e353000f 	cmp	r3, #15
    518c:	93e00009 	mvnls	r0, #9
    5190:	912fff1e 	bxls	lr
    5194:	e5903018 	ldr	r3, [r0, #24]
    5198:	e6bf3f33 	rev	r3, r3
    519c:	e3530011 	cmp	r3, #17
    51a0:	83e00009 	mvnhi	r0, #9
    51a4:	93a00000 	movls	r0, #0
    51a8:	e12fff1e 	bx	lr
    51ac:	e3e00008 	mvn	r0, #8
    51b0:	e12fff1e 	bx	lr

000051b4 <fdt_offset_ptr>:
    51b4:	e5903014 	ldr	r3, [r0, #20]
    51b8:	e6bf3f33 	rev	r3, r3
    51bc:	e3530010 	cmp	r3, #16
    51c0:	9a000006 	bls	51e0 <fdt_offset_ptr+0x2c>
    51c4:	e0923001 	adds	r3, r2, r1
    51c8:	23a00000 	movcs	r0, #0
    51cc:	212fff1e 	bxcs	lr
    51d0:	e590c024 	ldr	ip, [r0, #36]	; 0x24
    51d4:	e6bfcf3c 	rev	ip, ip
    51d8:	e153000c 	cmp	r3, ip
    51dc:	8a000006 	bhi	51fc <fdt_offset_ptr+0x48>
    51e0:	e5903008 	ldr	r3, [r0, #8]
    51e4:	e6bf3f33 	rev	r3, r3
    51e8:	e0831001 	add	r1, r3, r1
    51ec:	e0800001 	add	r0, r0, r1
    51f0:	e1700002 	cmn	r0, r2
    51f4:	23a00000 	movcs	r0, #0
    51f8:	e12fff1e 	bx	lr
    51fc:	e3a00000 	mov	r0, #0
    5200:	e12fff1e 	bx	lr

00005204 <fdt_next_tag>:
    5204:	e92d41f0 	push	{r4, r5, r6, r7, r8, lr}
    5208:	e1a06002 	mov	r6, r2
    520c:	e3e03007 	mvn	r3, #7
    5210:	e3a02004 	mov	r2, #4
    5214:	e5863000 	str	r3, [r6]
    5218:	e1a07000 	mov	r7, r0
    521c:	e1a08001 	mov	r8, r1
    5220:	ebffffe3 	bl	51b4 <fdt_offset_ptr>
    5224:	e3500000 	cmp	r0, #0
    5228:	0a000024 	beq	52c0 <fdt_next_tag+0xbc>
    522c:	e5905000 	ldr	r5, [r0]
    5230:	e3e0200a 	mvn	r2, #10
    5234:	e6bf5f35 	rev	r5, r5
    5238:	e2453001 	sub	r3, r5, #1
    523c:	e2884004 	add	r4, r8, #4
    5240:	e5862000 	str	r2, [r6]
    5244:	e3530008 	cmp	r3, #8
    5248:	908ff103 	addls	pc, pc, r3, lsl #2
    524c:	ea00001b 	b	52c0 <fdt_next_tag+0xbc>
    5250:	ea000007 	b	5274 <fdt_next_tag+0x70>
    5254:	ea000010 	b	529c <fdt_next_tag+0x98>
    5258:	ea00001b 	b	52cc <fdt_next_tag+0xc8>
    525c:	ea00000e 	b	529c <fdt_next_tag+0x98>
    5260:	ea000016 	b	52c0 <fdt_next_tag+0xbc>
    5264:	ea000015 	b	52c0 <fdt_next_tag+0xbc>
    5268:	ea000014 	b	52c0 <fdt_next_tag+0xbc>
    526c:	ea000013 	b	52c0 <fdt_next_tag+0xbc>
    5270:	ea000009 	b	529c <fdt_next_tag+0x98>
    5274:	e1a01004 	mov	r1, r4
    5278:	e3a02001 	mov	r2, #1
    527c:	e1a00007 	mov	r0, r7
    5280:	e0844002 	add	r4, r4, r2
    5284:	ebffffca 	bl	51b4 <fdt_offset_ptr>
    5288:	e3500000 	cmp	r0, #0
    528c:	0a00000b 	beq	52c0 <fdt_next_tag+0xbc>
    5290:	e5d03000 	ldrb	r3, [r0]
    5294:	e3530000 	cmp	r3, #0
    5298:	1afffff5 	bne	5274 <fdt_next_tag+0x70>
    529c:	e0682004 	rsb	r2, r8, r4
    52a0:	e1a01008 	mov	r1, r8
    52a4:	e1a00007 	mov	r0, r7
    52a8:	ebffffc1 	bl	51b4 <fdt_offset_ptr>
    52ac:	e3500000 	cmp	r0, #0
    52b0:	12844003 	addne	r4, r4, #3
    52b4:	13c44003 	bicne	r4, r4, #3
    52b8:	15864000 	strne	r4, [r6]
    52bc:	1a000000 	bne	52c4 <fdt_next_tag+0xc0>
    52c0:	e3a05009 	mov	r5, #9
    52c4:	e1a00005 	mov	r0, r5
    52c8:	e8bd81f0 	pop	{r4, r5, r6, r7, r8, pc}
    52cc:	e1a00007 	mov	r0, r7
    52d0:	e1a01004 	mov	r1, r4
    52d4:	e3a02004 	mov	r2, #4
    52d8:	ebffffb5 	bl	51b4 <fdt_offset_ptr>
    52dc:	e3500000 	cmp	r0, #0
    52e0:	0afffff6 	beq	52c0 <fdt_next_tag+0xbc>
    52e4:	e288300c 	add	r3, r8, #12
    52e8:	e5904000 	ldr	r4, [r0]
    52ec:	e6bf4f34 	rev	r4, r4
    52f0:	e0834004 	add	r4, r3, r4
    52f4:	eaffffe8 	b	529c <fdt_next_tag+0x98>

000052f8 <_fdt_check_node_offset>:
    52f8:	e52de004 	push	{lr}		; (str lr, [sp, #-4]!)
    52fc:	e2513000 	subs	r3, r1, #0
    5300:	e24dd00c 	sub	sp, sp, #12
    5304:	e58d1004 	str	r1, [sp, #4]
    5308:	ba000008 	blt	5330 <_fdt_check_node_offset+0x38>
    530c:	e3130003 	tst	r3, #3
    5310:	1a000006 	bne	5330 <_fdt_check_node_offset+0x38>
    5314:	e28d2004 	add	r2, sp, #4
    5318:	ebffffb9 	bl	5204 <fdt_next_tag>
    531c:	e3500001 	cmp	r0, #1
    5320:	059d0004 	ldreq	r0, [sp, #4]
    5324:	1a000001 	bne	5330 <_fdt_check_node_offset+0x38>
    5328:	e28dd00c 	add	sp, sp, #12
    532c:	e8bd8000 	pop	{pc}
    5330:	e3e00003 	mvn	r0, #3
    5334:	eafffffb 	b	5328 <_fdt_check_node_offset+0x30>

00005338 <_fdt_check_prop_offset>:
    5338:	e52de004 	push	{lr}		; (str lr, [sp, #-4]!)
    533c:	e2513000 	subs	r3, r1, #0
    5340:	e24dd00c 	sub	sp, sp, #12
    5344:	e58d1004 	str	r1, [sp, #4]
    5348:	ba000008 	blt	5370 <_fdt_check_prop_offset+0x38>
    534c:	e3130003 	tst	r3, #3
    5350:	1a000006 	bne	5370 <_fdt_check_prop_offset+0x38>
    5354:	e28d2004 	add	r2, sp, #4
    5358:	ebffffa9 	bl	5204 <fdt_next_tag>
    535c:	e3500003 	cmp	r0, #3
    5360:	059d0004 	ldreq	r0, [sp, #4]
    5364:	1a000001 	bne	5370 <_fdt_check_prop_offset+0x38>
    5368:	e28dd00c 	add	sp, sp, #12
    536c:	e8bd8000 	pop	{pc}
    5370:	e3e00003 	mvn	r0, #3
    5374:	eafffffb 	b	5368 <_fdt_check_prop_offset+0x30>

00005378 <fdt_next_node>:
    5378:	e92d40f0 	push	{r4, r5, r6, r7, lr}
    537c:	e3510000 	cmp	r1, #0
    5380:	e24dd00c 	sub	sp, sp, #12
    5384:	e3a04000 	mov	r4, #0
    5388:	e1a06000 	mov	r6, r0
    538c:	e1a05002 	mov	r5, r2
    5390:	e58d4004 	str	r4, [sp, #4]
    5394:	ba000004 	blt	53ac <fdt_next_node+0x34>
    5398:	ebffffd6 	bl	52f8 <_fdt_check_node_offset>
    539c:	e3500000 	cmp	r0, #0
    53a0:	e1a04000 	mov	r4, r0
    53a4:	e58d0004 	str	r0, [sp, #4]
    53a8:	ba000010 	blt	53f0 <fdt_next_node+0x78>
    53ac:	e28d7004 	add	r7, sp, #4
    53b0:	e1a01004 	mov	r1, r4
    53b4:	e1a00006 	mov	r0, r6
    53b8:	e1a02007 	mov	r2, r7
    53bc:	ebffff90 	bl	5204 <fdt_next_tag>
    53c0:	e3500002 	cmp	r0, #2
    53c4:	0a000014 	beq	541c <fdt_next_node+0xa4>
    53c8:	e3500009 	cmp	r0, #9
    53cc:	0a00000a 	beq	53fc <fdt_next_node+0x84>
    53d0:	e3500001 	cmp	r0, #1
    53d4:	0a000001 	beq	53e0 <fdt_next_node+0x68>
    53d8:	e59d4004 	ldr	r4, [sp, #4]
    53dc:	eafffff3 	b	53b0 <fdt_next_node+0x38>
    53e0:	e3550000 	cmp	r5, #0
    53e4:	15953000 	ldrne	r3, [r5]
    53e8:	12833001 	addne	r3, r3, #1
    53ec:	15853000 	strne	r3, [r5]
    53f0:	e1a00004 	mov	r0, r4
    53f4:	e28dd00c 	add	sp, sp, #12
    53f8:	e8bd80f0 	pop	{r4, r5, r6, r7, pc}
    53fc:	e59d4004 	ldr	r4, [sp, #4]
    5400:	e3540000 	cmp	r4, #0
    5404:	a3e04000 	mvnge	r4, #0
    5408:	aafffff8 	bge	53f0 <fdt_next_node+0x78>
    540c:	e3550000 	cmp	r5, #0
    5410:	03740008 	cmneq	r4, #8
    5414:	03e04000 	mvneq	r4, #0
    5418:	eafffff4 	b	53f0 <fdt_next_node+0x78>
    541c:	e3550000 	cmp	r5, #0
    5420:	0affffec 	beq	53d8 <fdt_next_node+0x60>
    5424:	e5953000 	ldr	r3, [r5]
    5428:	e2433001 	sub	r3, r3, #1
    542c:	e5853000 	str	r3, [r5]
    5430:	e3530000 	cmp	r3, #0
    5434:	aaffffe7 	bge	53d8 <fdt_next_node+0x60>
    5438:	e59d4004 	ldr	r4, [sp, #4]
    543c:	eaffffeb 	b	53f0 <fdt_next_node+0x78>

00005440 <_fdt_find_string>:
    5440:	e92d40f8 	push	{r3, r4, r5, r6, r7, lr}
    5444:	e1a04000 	mov	r4, r0
    5448:	e1a00002 	mov	r0, r2
    544c:	e1a07001 	mov	r7, r1
    5450:	e1a06002 	mov	r6, r2
    5454:	ebfff8d5 	bl	37b0 <strlen>
    5458:	e2805001 	add	r5, r0, #1
    545c:	e0657007 	rsb	r7, r5, r7
    5460:	e0947007 	adds	r7, r4, r7
    5464:	3a000003 	bcc	5478 <_fdt_find_string+0x38>
    5468:	ea00000a 	b	5498 <_fdt_find_string+0x58>
    546c:	e2844001 	add	r4, r4, #1
    5470:	e1570004 	cmp	r7, r4
    5474:	3a000007 	bcc	5498 <_fdt_find_string+0x58>
    5478:	e1a00004 	mov	r0, r4
    547c:	e1a01006 	mov	r1, r6
    5480:	e1a02005 	mov	r2, r5
    5484:	ebfff8d1 	bl	37d0 <memcmp>
    5488:	e3500000 	cmp	r0, #0
    548c:	1afffff6 	bne	546c <_fdt_find_string+0x2c>
    5490:	e1a00004 	mov	r0, r4
    5494:	e8bd80f8 	pop	{r3, r4, r5, r6, r7, pc}
    5498:	e3a04000 	mov	r4, #0
    549c:	e1a00004 	mov	r0, r4
    54a0:	e8bd80f8 	pop	{r3, r4, r5, r6, r7, pc}

000054a4 <fdt_move>:
    54a4:	e92d40f8 	push	{r3, r4, r5, r6, r7, lr}
    54a8:	e1a05000 	mov	r5, r0
    54ac:	e1a06001 	mov	r6, r1
    54b0:	e1a07002 	mov	r7, r2
    54b4:	ebffff21 	bl	5140 <fdt_check_header>
    54b8:	e2504000 	subs	r4, r0, #0
    54bc:	1a000008 	bne	54e4 <fdt_move+0x40>
    54c0:	e5953004 	ldr	r3, [r5, #4]
    54c4:	e6bf3f33 	rev	r3, r3
    54c8:	e1570003 	cmp	r7, r3
    54cc:	33e04002 	mvncc	r4, #2
    54d0:	3a000003 	bcc	54e4 <fdt_move+0x40>
    54d4:	e1a00006 	mov	r0, r6
    54d8:	e1a01005 	mov	r1, r5
    54dc:	e1a02003 	mov	r2, r3
    54e0:	ebfff8a2 	bl	3770 <memmove>
    54e4:	e1a00004 	mov	r0, r4
    54e8:	e8bd80f8 	pop	{r3, r4, r5, r6, r7, pc}

000054ec <node_offset>:
    54ec:	e92d4038 	push	{r3, r4, r5, lr}
    54f0:	e1a05000 	mov	r5, r0
    54f4:	e1a04001 	mov	r4, r1
    54f8:	ebfffd4b 	bl	4a2c <fdt_path_offset>
    54fc:	e3700001 	cmn	r0, #1
    5500:	18bd8038 	popne	{r3, r4, r5, pc}
    5504:	e1a00005 	mov	r0, r5
    5508:	e3a01000 	mov	r1, #0
    550c:	e1a02004 	mov	r2, r4
    5510:	e8bd4038 	pop	{r3, r4, r5, lr}
    5514:	eafffb25 	b	41b0 <fdt_add_subnode>

00005518 <setprop_cell.constprop.1>:
    5518:	e92d4070 	push	{r4, r5, r6, lr}
    551c:	e1a04001 	mov	r4, r1
    5520:	e59f1048 	ldr	r1, [pc, #72]	; 5570 <setprop_cell.constprop.1+0x58>
    5524:	e24dd010 	sub	sp, sp, #16
    5528:	e1a05000 	mov	r5, r0
    552c:	e1a06002 	mov	r6, r2
    5530:	e08f1001 	add	r1, pc, r1
    5534:	ebffffec 	bl	54ec <node_offset>
    5538:	e2501000 	subs	r1, r0, #0
    553c:	ba000008 	blt	5564 <setprop_cell.constprop.1+0x4c>
    5540:	e28d3010 	add	r3, sp, #16
    5544:	e1a00005 	mov	r0, r5
    5548:	e6bf6f36 	rev	r6, r6
    554c:	e1a02004 	mov	r2, r4
    5550:	e5236004 	str	r6, [r3, #-4]!
    5554:	e3a0c004 	mov	ip, #4
    5558:	e58dc000 	str	ip, [sp]
    555c:	ebfffa43 	bl	3e70 <fdt_setprop>
    5560:	e1a01000 	mov	r1, r0
    5564:	e1a00001 	mov	r0, r1
    5568:	e28dd010 	add	sp, sp, #16
    556c:	e8bd8070 	pop	{r4, r5, r6, pc}
    5570:	000012e4 	.word	0x000012e4

00005574 <atags_to_fdt>:
    5574:	e92d4ff0 	push	{r4, r5, r6, r7, r8, r9, sl, fp, lr}
    5578:	e1a04000 	mov	r4, r0
    557c:	e2100003 	ands	r0, r0, #3
    5580:	e24dd0b4 	sub	sp, sp, #180	; 0xb4
    5584:	e1a07001 	mov	r7, r1
    5588:	1a000009 	bne	55b4 <atags_to_fdt+0x40>
    558c:	e5943000 	ldr	r3, [r4]
    5590:	e3a0cedd 	mov	ip, #3536	; 0xdd0
    5594:	e34ecdfe 	movt	ip, #60926	; 0xedfe
    5598:	e153000c 	cmp	r3, ip
    559c:	0a000005 	beq	55b8 <atags_to_fdt+0x44>
    55a0:	e594c004 	ldr	ip, [r4, #4]
    55a4:	e3a00001 	mov	r0, #1
    55a8:	e3450441 	movt	r0, #21569	; 0x5441
    55ac:	e15c0000 	cmp	ip, r0
    55b0:	0a000002 	beq	55c0 <atags_to_fdt+0x4c>
    55b4:	e3a00001 	mov	r0, #1
    55b8:	e28dd0b4 	add	sp, sp, #180	; 0xb4
    55bc:	e8bd8ff0 	pop	{r4, r5, r6, r7, r8, r9, sl, fp, pc}
    55c0:	e3530002 	cmp	r3, #2
    55c4:	13530005 	cmpne	r3, #5
    55c8:	03a05000 	moveq	r5, #0
    55cc:	13a05001 	movne	r5, #1
    55d0:	1afffff7 	bne	55b4 <atags_to_fdt+0x40>
    55d4:	e1a00001 	mov	r0, r1
    55d8:	ebfffb18 	bl	4240 <fdt_open_into>
    55dc:	e3500000 	cmp	r0, #0
    55e0:	bafffff4 	blt	55b8 <atags_to_fdt+0x44>
    55e4:	e5943000 	ldr	r3, [r4]
    55e8:	e3530000 	cmp	r3, #0
    55ec:	0a000055 	beq	5748 <atags_to_fdt+0x1d4>
    55f0:	e59fb220 	ldr	fp, [pc, #544]	; 5818 <atags_to_fdt+0x2a4>
    55f4:	e3a08009 	mov	r8, #9
    55f8:	e3a0a005 	mov	sl, #5
    55fc:	e3a00000 	mov	r0, #0
    5600:	e6bf3f35 	rev	r3, r5
    5604:	e08fb00b 	add	fp, pc, fp
    5608:	e1a09005 	mov	r9, r5
    560c:	e3458441 	movt	r8, #21569	; 0x5441
    5610:	e58d3008 	str	r3, [sp, #8]
    5614:	e345a442 	movt	sl, #21570	; 0x5442
    5618:	e1a06004 	mov	r6, r4
    561c:	e58d000c 	str	r0, [sp, #12]
    5620:	ea000006 	b	5640 <atags_to_fdt+0xcc>
    5624:	e153000a 	cmp	r3, sl
    5628:	0a000049 	beq	5754 <atags_to_fdt+0x1e0>
    562c:	e5963000 	ldr	r3, [r6]
    5630:	e1a03103 	lsl	r3, r3, #2
    5634:	e7b63003 	ldr	r3, [r6, r3]!
    5638:	e3530000 	cmp	r3, #0
    563c:	0a000030 	beq	5704 <atags_to_fdt+0x190>
    5640:	e5963004 	ldr	r3, [r6, #4]
    5644:	e1530008 	cmp	r3, r8
    5648:	0a00001b 	beq	56bc <atags_to_fdt+0x148>
    564c:	e3a02002 	mov	r2, #2
    5650:	e3452441 	movt	r2, #21569	; 0x5441
    5654:	e1530002 	cmp	r3, r2
    5658:	1afffff1 	bne	5624 <atags_to_fdt+0xb0>
    565c:	e359001f 	cmp	r9, #31
    5660:	8afffff1 	bhi	562c <atags_to_fdt+0xb8>
    5664:	e5963008 	ldr	r3, [r6, #8]
    5668:	e3530000 	cmp	r3, #0
    566c:	0affffee 	beq	562c <atags_to_fdt+0xb8>
    5670:	e59f11a4 	ldr	r1, [pc, #420]	; 581c <atags_to_fdt+0x2a8>
    5674:	e1a00007 	mov	r0, r7
    5678:	e08f1001 	add	r1, pc, r1
    567c:	ebfffcea 	bl	4a2c <fdt_path_offset>
    5680:	e3700001 	cmn	r0, #1
    5684:	e1a01000 	mov	r1, r0
    5688:	1a00003d 	bne	5784 <atags_to_fdt+0x210>
    568c:	e3a05001 	mov	r5, #1
    5690:	e58d5014 	str	r5, [sp, #20]
    5694:	e28d50b0 	add	r5, sp, #176	; 0xb0
    5698:	e596200c 	ldr	r2, [r6, #12]
    569c:	e0851109 	add	r1, r5, r9, lsl #2
    56a0:	e5963008 	ldr	r3, [r6, #8]
    56a4:	e6bf2f32 	rev	r2, r2
    56a8:	e6bf3f33 	rev	r3, r3
    56ac:	e2899002 	add	r9, r9, #2
    56b0:	e5012084 	str	r2, [r1, #-132]	; 0x84
    56b4:	e5013080 	str	r3, [r1, #-128]	; 0x80
    56b8:	eaffffdb 	b	562c <atags_to_fdt+0xb8>
    56bc:	e59f115c 	ldr	r1, [pc, #348]	; 5820 <atags_to_fdt+0x2ac>
    56c0:	e1a00007 	mov	r0, r7
    56c4:	e08f1001 	add	r1, pc, r1
    56c8:	ebffff87 	bl	54ec <node_offset>
    56cc:	e2505000 	subs	r5, r0, #0
    56d0:	baffffd5 	blt	562c <atags_to_fdt+0xb8>
    56d4:	e2864008 	add	r4, r6, #8
    56d8:	e1a00004 	mov	r0, r4
    56dc:	ebfff833 	bl	37b0 <strlen>
    56e0:	e59f213c 	ldr	r2, [pc, #316]	; 5824 <atags_to_fdt+0x2b0>
    56e4:	e1a01005 	mov	r1, r5
    56e8:	e1a03004 	mov	r3, r4
    56ec:	e08f2002 	add	r2, pc, r2
    56f0:	e280c001 	add	ip, r0, #1
    56f4:	e1a00007 	mov	r0, r7
    56f8:	e58dc000 	str	ip, [sp]
    56fc:	ebfff9db 	bl	3e70 <fdt_setprop>
    5700:	eaffffc9 	b	562c <atags_to_fdt+0xb8>
    5704:	e3590000 	cmp	r9, #0
    5708:	0a00000e 	beq	5748 <atags_to_fdt+0x1d4>
    570c:	e59f1114 	ldr	r1, [pc, #276]	; 5828 <atags_to_fdt+0x2b4>
    5710:	e1a00007 	mov	r0, r7
    5714:	e08f1001 	add	r1, pc, r1
    5718:	ebffff73 	bl	54ec <node_offset>
    571c:	e2501000 	subs	r1, r0, #0
    5720:	ba000008 	blt	5748 <atags_to_fdt+0x1d4>
    5724:	e59d4014 	ldr	r4, [sp, #20]
    5728:	e1a0c109 	lsl	ip, r9, #2
    572c:	e59f20f8 	ldr	r2, [pc, #248]	; 582c <atags_to_fdt+0x2b8>
    5730:	e1a00007 	mov	r0, r7
    5734:	e28d302c 	add	r3, sp, #44	; 0x2c
    5738:	e00c0c94 	mul	ip, r4, ip
    573c:	e08f2002 	add	r2, pc, r2
    5740:	e58dc000 	str	ip, [sp]
    5744:	ebfff9c9 	bl	3e70 <fdt_setprop>
    5748:	e1a00007 	mov	r0, r7
    574c:	ebfffb2c 	bl	4404 <fdt_pack>
    5750:	eaffff98 	b	55b8 <atags_to_fdt+0x44>
    5754:	e5964008 	ldr	r4, [r6, #8]
    5758:	e1a0100b 	mov	r1, fp
    575c:	e1a00007 	mov	r0, r7
    5760:	e596500c 	ldr	r5, [r6, #12]
    5764:	e1a02004 	mov	r2, r4
    5768:	ebffff6a 	bl	5518 <setprop_cell.constprop.1>
    576c:	e59f10bc 	ldr	r1, [pc, #188]	; 5830 <atags_to_fdt+0x2bc>
    5770:	e1a00007 	mov	r0, r7
    5774:	e0852004 	add	r2, r5, r4
    5778:	e08f1001 	add	r1, pc, r1
    577c:	ebffff65 	bl	5518 <setprop_cell.constprop.1>
    5780:	eaffffa9 	b	562c <atags_to_fdt+0xb8>
    5784:	e59f20a8 	ldr	r2, [pc, #168]	; 5834 <atags_to_fdt+0x2c0>
    5788:	e1a00007 	mov	r0, r7
    578c:	e28d30ac 	add	r3, sp, #172	; 0xac
    5790:	e08f2002 	add	r2, pc, r2
    5794:	ebfffc60 	bl	491c <fdt_getprop>
    5798:	e3500000 	cmp	r0, #0
    579c:	0affffba 	beq	568c <atags_to_fdt+0x118>
    57a0:	e5903000 	ldr	r3, [r0]
    57a4:	e6bf4f33 	rev	r4, r3
    57a8:	e3540002 	cmp	r4, #2
    57ac:	e58d4014 	str	r4, [sp, #20]
    57b0:	1affffb7 	bne	5694 <atags_to_fdt+0x120>
    57b4:	e596300c 	ldr	r3, [r6, #12]
    57b8:	e3a05000 	mov	r5, #0
    57bc:	e6bf3f33 	rev	r3, r3
    57c0:	e58d5018 	str	r5, [sp, #24]
    57c4:	e28d102c 	add	r1, sp, #44	; 0x2c
    57c8:	e58d301c 	str	r3, [sp, #28]
    57cc:	e1a00189 	lsl	r0, r9, #3
    57d0:	e1cd40d8 	ldrd	r4, [sp, #8]
    57d4:	e081c189 	add	ip, r1, r9, lsl #3
    57d8:	e5963008 	ldr	r3, [r6, #8]
    57dc:	e2899002 	add	r9, r9, #2
    57e0:	e6bf3f33 	rev	r3, r3
    57e4:	e58d3024 	str	r3, [sp, #36]	; 0x24
    57e8:	e1cd21d8 	ldrd	r2, [sp, #24]
    57ec:	e1833005 	orr	r3, r3, r5
    57f0:	e3a05000 	mov	r5, #0
    57f4:	e58d5020 	str	r5, [sp, #32]
    57f8:	e1822004 	orr	r2, r2, r4
    57fc:	e1cd40d8 	ldrd	r4, [sp, #8]
    5800:	e18020f1 	strd	r2, [r0, r1]
    5804:	e1cd22d0 	ldrd	r2, [sp, #32]
    5808:	e1822004 	orr	r2, r2, r4
    580c:	e1833005 	orr	r3, r3, r5
    5810:	e1cc20f8 	strd	r2, [ip, #8]
    5814:	eaffff84 	b	562c <atags_to_fdt+0xb8>
    5818:	00001234 	.word	0x00001234
    581c:	000011b0 	.word	0x000011b0
    5820:	00001150 	.word	0x00001150
    5824:	00001130 	.word	0x00001130
    5828:	0000114c 	.word	0x0000114c
    582c:	0000112c 	.word	0x0000112c
    5830:	000010d4 	.word	0x000010d4
    5834:	0000109c 	.word	0x0000109c

00005838 <__aeabi_uidiv>:
    5838:	e2512001 	subs	r2, r1, #1
    583c:	01a0f00e 	moveq	pc, lr
    5840:	3a0000b8 	bcc	5b28 <Ldiv0>
    5844:	e1500001 	cmp	r0, r1
    5848:	9a00001a 	bls	58b8 <__aeabi_uidiv+0x80>
    584c:	e1110002 	tst	r1, r2
    5850:	0a00001b 	beq	58c4 <__aeabi_uidiv+0x8c>
    5854:	e16f3f11 	clz	r3, r1
    5858:	e16f2f10 	clz	r2, r0
    585c:	e0432002 	sub	r2, r3, r2
    5860:	e3a03001 	mov	r3, #1
    5864:	e1a01211 	lsl	r1, r1, r2
    5868:	e1a03213 	lsl	r3, r3, r2
    586c:	e3a02000 	mov	r2, #0
    5870:	e1500001 	cmp	r0, r1
    5874:	20400001 	subcs	r0, r0, r1
    5878:	21822003 	orrcs	r2, r2, r3
    587c:	e15000a1 	cmp	r0, r1, lsr #1
    5880:	204000a1 	subcs	r0, r0, r1, lsr #1
    5884:	218220a3 	orrcs	r2, r2, r3, lsr #1
    5888:	e1500121 	cmp	r0, r1, lsr #2
    588c:	20400121 	subcs	r0, r0, r1, lsr #2
    5890:	21822123 	orrcs	r2, r2, r3, lsr #2
    5894:	e15001a1 	cmp	r0, r1, lsr #3
    5898:	204001a1 	subcs	r0, r0, r1, lsr #3
    589c:	218221a3 	orrcs	r2, r2, r3, lsr #3
    58a0:	e3500000 	cmp	r0, #0
    58a4:	11b03223 	lsrsne	r3, r3, #4
    58a8:	11a01221 	lsrne	r1, r1, #4
    58ac:	1affffef 	bne	5870 <__aeabi_uidiv+0x38>
    58b0:	e1a00002 	mov	r0, r2
    58b4:	e1a0f00e 	mov	pc, lr
    58b8:	03a00001 	moveq	r0, #1
    58bc:	13a00000 	movne	r0, #0
    58c0:	e1a0f00e 	mov	pc, lr
    58c4:	e16f2f11 	clz	r2, r1
    58c8:	e262201f 	rsb	r2, r2, #31
    58cc:	e1a00230 	lsr	r0, r0, r2
    58d0:	e1a0f00e 	mov	pc, lr

000058d4 <__umodsi3>:
    58d4:	e2512001 	subs	r2, r1, #1
    58d8:	3a000092 	bcc	5b28 <Ldiv0>
    58dc:	11500001 	cmpne	r0, r1
    58e0:	03a00000 	moveq	r0, #0
    58e4:	81110002 	tsthi	r1, r2
    58e8:	00000002 	andeq	r0, r0, r2
    58ec:	91a0f00e 	movls	pc, lr
    58f0:	e16f2f11 	clz	r2, r1
    58f4:	e16f3f10 	clz	r3, r0
    58f8:	e0422003 	sub	r2, r2, r3
    58fc:	e1a01211 	lsl	r1, r1, r2
    5900:	e2522003 	subs	r2, r2, #3
    5904:	ba00000e 	blt	5944 <__umodsi3+0x70>
    5908:	e1500001 	cmp	r0, r1
    590c:	20400001 	subcs	r0, r0, r1
    5910:	e15000a1 	cmp	r0, r1, lsr #1
    5914:	204000a1 	subcs	r0, r0, r1, lsr #1
    5918:	e1500121 	cmp	r0, r1, lsr #2
    591c:	20400121 	subcs	r0, r0, r1, lsr #2
    5920:	e15001a1 	cmp	r0, r1, lsr #3
    5924:	204001a1 	subcs	r0, r0, r1, lsr #3
    5928:	e3500001 	cmp	r0, #1
    592c:	e1a01221 	lsr	r1, r1, #4
    5930:	a2522004 	subsge	r2, r2, #4
    5934:	aafffff3 	bge	5908 <__umodsi3+0x34>
    5938:	e3120003 	tst	r2, #3
    593c:	13300000 	teqne	r0, #0
    5940:	0a00000a 	beq	5970 <__umodsi3+0x9c>
    5944:	e3720002 	cmn	r2, #2
    5948:	ba000006 	blt	5968 <__umodsi3+0x94>
    594c:	0a000002 	beq	595c <__umodsi3+0x88>
    5950:	e1500001 	cmp	r0, r1
    5954:	20400001 	subcs	r0, r0, r1
    5958:	e1a010a1 	lsr	r1, r1, #1
    595c:	e1500001 	cmp	r0, r1
    5960:	20400001 	subcs	r0, r0, r1
    5964:	e1a010a1 	lsr	r1, r1, #1
    5968:	e1500001 	cmp	r0, r1
    596c:	20400001 	subcs	r0, r0, r1
    5970:	e1a0f00e 	mov	pc, lr

00005974 <__aeabi_idiv>:
    5974:	e3510000 	cmp	r1, #0
    5978:	e020c001 	eor	ip, r0, r1
    597c:	0a000069 	beq	5b28 <Ldiv0>
    5980:	42611000 	rsbmi	r1, r1, #0
    5984:	e2512001 	subs	r2, r1, #1
    5988:	0a00001f 	beq	5a0c <__aeabi_idiv+0x98>
    598c:	e1b03000 	movs	r3, r0
    5990:	42603000 	rsbmi	r3, r0, #0
    5994:	e1530001 	cmp	r3, r1
    5998:	9a00001e 	bls	5a18 <__aeabi_idiv+0xa4>
    599c:	e1110002 	tst	r1, r2
    59a0:	0a000020 	beq	5a28 <__aeabi_idiv+0xb4>
    59a4:	e16f2f11 	clz	r2, r1
    59a8:	e16f0f13 	clz	r0, r3
    59ac:	e0420000 	sub	r0, r2, r0
    59b0:	e3a02001 	mov	r2, #1
    59b4:	e1a01011 	lsl	r1, r1, r0
    59b8:	e1a02012 	lsl	r2, r2, r0
    59bc:	e3a00000 	mov	r0, #0
    59c0:	e1530001 	cmp	r3, r1
    59c4:	20433001 	subcs	r3, r3, r1
    59c8:	21800002 	orrcs	r0, r0, r2
    59cc:	e15300a1 	cmp	r3, r1, lsr #1
    59d0:	204330a1 	subcs	r3, r3, r1, lsr #1
    59d4:	218000a2 	orrcs	r0, r0, r2, lsr #1
    59d8:	e1530121 	cmp	r3, r1, lsr #2
    59dc:	20433121 	subcs	r3, r3, r1, lsr #2
    59e0:	21800122 	orrcs	r0, r0, r2, lsr #2
    59e4:	e15301a1 	cmp	r3, r1, lsr #3
    59e8:	204331a1 	subcs	r3, r3, r1, lsr #3
    59ec:	218001a2 	orrcs	r0, r0, r2, lsr #3
    59f0:	e3530000 	cmp	r3, #0
    59f4:	11b02222 	lsrsne	r2, r2, #4
    59f8:	11a01221 	lsrne	r1, r1, #4
    59fc:	1affffef 	bne	59c0 <__aeabi_idiv+0x4c>
    5a00:	e35c0000 	cmp	ip, #0
    5a04:	42600000 	rsbmi	r0, r0, #0
    5a08:	e1a0f00e 	mov	pc, lr
    5a0c:	e13c0000 	teq	ip, r0
    5a10:	42600000 	rsbmi	r0, r0, #0
    5a14:	e1a0f00e 	mov	pc, lr
    5a18:	33a00000 	movcc	r0, #0
    5a1c:	01a00fcc 	asreq	r0, ip, #31
    5a20:	03800001 	orreq	r0, r0, #1
    5a24:	e1a0f00e 	mov	pc, lr
    5a28:	e16f2f11 	clz	r2, r1
    5a2c:	e262201f 	rsb	r2, r2, #31
    5a30:	e35c0000 	cmp	ip, #0
    5a34:	e1a00233 	lsr	r0, r3, r2
    5a38:	42600000 	rsbmi	r0, r0, #0
    5a3c:	e1a0f00e 	mov	pc, lr

00005a40 <__modsi3>:
    5a40:	e3510000 	cmp	r1, #0
    5a44:	0a000037 	beq	5b28 <Ldiv0>
    5a48:	42611000 	rsbmi	r1, r1, #0
    5a4c:	e1b0c000 	movs	ip, r0
    5a50:	42600000 	rsbmi	r0, r0, #0
    5a54:	e2512001 	subs	r2, r1, #1
    5a58:	11500001 	cmpne	r0, r1
    5a5c:	03a00000 	moveq	r0, #0
    5a60:	81110002 	tsthi	r1, r2
    5a64:	00000002 	andeq	r0, r0, r2
    5a68:	9a00001f 	bls	5aec <__modsi3+0xac>
    5a6c:	e16f2f11 	clz	r2, r1
    5a70:	e16f3f10 	clz	r3, r0
    5a74:	e0422003 	sub	r2, r2, r3
    5a78:	e1a01211 	lsl	r1, r1, r2
    5a7c:	e2522003 	subs	r2, r2, #3
    5a80:	ba00000e 	blt	5ac0 <__modsi3+0x80>
    5a84:	e1500001 	cmp	r0, r1
    5a88:	20400001 	subcs	r0, r0, r1
    5a8c:	e15000a1 	cmp	r0, r1, lsr #1
    5a90:	204000a1 	subcs	r0, r0, r1, lsr #1
    5a94:	e1500121 	cmp	r0, r1, lsr #2
    5a98:	20400121 	subcs	r0, r0, r1, lsr #2
    5a9c:	e15001a1 	cmp	r0, r1, lsr #3
    5aa0:	204001a1 	subcs	r0, r0, r1, lsr #3
    5aa4:	e3500001 	cmp	r0, #1
    5aa8:	e1a01221 	lsr	r1, r1, #4
    5aac:	a2522004 	subsge	r2, r2, #4
    5ab0:	aafffff3 	bge	5a84 <__modsi3+0x44>
    5ab4:	e3120003 	tst	r2, #3
    5ab8:	13300000 	teqne	r0, #0
    5abc:	0a00000a 	beq	5aec <__modsi3+0xac>
    5ac0:	e3720002 	cmn	r2, #2
    5ac4:	ba000006 	blt	5ae4 <__modsi3+0xa4>
    5ac8:	0a000002 	beq	5ad8 <__modsi3+0x98>
    5acc:	e1500001 	cmp	r0, r1
    5ad0:	20400001 	subcs	r0, r0, r1
    5ad4:	e1a010a1 	lsr	r1, r1, #1
    5ad8:	e1500001 	cmp	r0, r1
    5adc:	20400001 	subcs	r0, r0, r1
    5ae0:	e1a010a1 	lsr	r1, r1, #1
    5ae4:	e1500001 	cmp	r0, r1
    5ae8:	20400001 	subcs	r0, r0, r1
    5aec:	e35c0000 	cmp	ip, #0
    5af0:	42600000 	rsbmi	r0, r0, #0
    5af4:	e1a0f00e 	mov	pc, lr

00005af8 <__aeabi_uidivmod>:
    5af8:	e92d5003 	push	{r0, r1, ip, lr}
    5afc:	ebffff4d 	bl	5838 <__aeabi_uidiv>
    5b00:	e8bd5006 	pop	{r1, r2, ip, lr}
    5b04:	e0030290 	mul	r3, r0, r2
    5b08:	e0411003 	sub	r1, r1, r3
    5b0c:	e1a0f00e 	mov	pc, lr

00005b10 <__aeabi_idivmod>:
    5b10:	e92d5003 	push	{r0, r1, ip, lr}
    5b14:	ebffff96 	bl	5974 <__aeabi_idiv>
    5b18:	e8bd5006 	pop	{r1, r2, ip, lr}
    5b1c:	e0030290 	mul	r3, r0, r2
    5b20:	e0411003 	sub	r1, r1, r3
    5b24:	e1a0f00e 	mov	pc, lr

00005b28 <Ldiv0>:
    5b28:	e52de008 	str	lr, [sp, #-8]!
    5b2c:	ebffeba3 	bl	9c0 <__div0>
    5b30:	e3a00000 	mov	r0, #0
    5b34:	e49df008 	ldr	pc, [sp], #8

00005b38 <__aeabi_llsl>:
    5b38:	e2523020 	subs	r3, r2, #32
    5b3c:	e262c020 	rsb	ip, r2, #32
    5b40:	41a01211 	lslmi	r1, r1, r2
    5b44:	51a01310 	lslpl	r1, r0, r3
    5b48:	41811c30 	orrmi	r1, r1, r0, lsr ip
    5b4c:	e1a00210 	lsl	r0, r0, r2
    5b50:	e1a0f00e 	mov	pc, lr
